ccollections
defaultdict
p0
(c__builtin__
list
p1
tp2
Rp3
S'M\xbc'
p4
(lp5
I185
asS'G\x08'
p6
(lp7
I265
aI617
aI1122
asS' B'
p8
(lp9
I96
aI137
aI104
aI112
aI121
aI129
aI129
aI113
aI96
aI137
aI104
aI105
aI113
aI121
aI121
aI113
aI89
aI113
aI160
aI177
aI104
aI80
aI120
aI105
aI264
aI88
aI113
aI120
aI105
aI121
aI89
aI97
aI120
aI136
aI209
aI185
aI153
aI88
aI97
aI88
aI104
aI105
aI145
aI137
aI120
aI209
aI409
aI97
aI201
aI168
aI640
aI177
aI424
aI121
aI177
aI112
aI729
aI377
aI144
aI128
aI977
aI136
aI144
aI265
aI112
aI129
aI113
aI169
aI209
aI208
aI145
aI129
aI201
aI209
aI128
aI89
aI216
aI184
aI137
aI241
aI129
aI176
aI81
aI113
asS' C'
p10
(lp11
I81
aI65
aI40
aI121
aI40
aI145
aI33
aI121
aI95
aI72
aI153
aI33
aI201
aI48
aI416
aI49
aI33
aI33
aI96
aI41
aI72
aI17
aI17
aI105
aI73
aI49
aI65
aI160
aI193
aI137
aI161
aI225
aI57
aI24
aI41
aI41
aI65
aI41
aI137
aI72
aI161
aI121
aI25
aI73
aI57
aI256
aI9
aI112
aI33
aI121
aI105
aI8
aI241
aI40
aI113
aI112
aI193
aI185
aI25
aI168
aI313
aI386
aI80
aI217
aI33
aI32
aI73
aI200
aI161
aI120
aI177
aI193
aI152
aI48
aI137
aI25
aI153
aI160
aI1456
aI81
aI96
aI73
aI424
aI264
aI257
aI209
aI234
aI32
aI600
aI65
aI1233
aI153
aI216
aI457
asS' A'
p12
(lp13
I16
aI89
aI41
aI161
aI41
aI9
aI25
aI41
aI8
aI129
aI185
aI40
aI112
aI152
aI8
aI41
aI24
aI40
aI105
aI601
aI104
aI17
aI8
aI145
aI505
aI17
aI9
aI377
aI17
aI200
aI273
aI49
aI353
aI80
aI128
aI113
aI185
aI129
aI128
aI24
aI369
aI777
aI8
aI137
aI217
aI25
aI32
aI49
aI129
aI49
aI176
aI41
aI33
aI41
aI16
aI15
aI89
aI6933
aI160
aI9
aI225
aI40
aI225
aI113
aI176
aI81
aI177
aI9
aI89
aI40
aI48
aI232
aI120
aI264
aI95
aI112
aI127
aI40
aI48
aI153
aI113
aI25
aI33
aI17
aI137
aI121
aI233
aI33
aI16
aI8
aI33
aI152
aI33
aI105
aI48
aI48
aI321
aI177
aI32
aI80
aI17
aI16
aI113
aI57
aI25
aI105
aI57
aI113
aI121
aI74
aI128
aI48
aI96
aI17
aI49
aI49
aI137
aI56
aI25
aI8
aI1225
aI73
aI201
aI25
aI128
aI162
aI106
aI73
aI49
aI17
aI153
aI10
aI49
aI105
aI9
aI32
aI49
aI40
aI25
aI425
aI48
aI185
aI25
aI25
aI41
aI41
aI49
aI121
aI272
aI129
aI32
aI193
aI129
aI225
aI2145
aI112
aI116
aI17
aI137
aI216
aI33
aI96
aI184
aI161
aI65
aI144
aI353
aI9
aI81
aI449
aI8
aI128
aI64
aI65
aI369
aI529
aI208
aI217
aI56
aI152
aI96
aI137
aI233
aI209
aI505
aI25
aI25
aI137
aI89
aI144
asS' F'
p14
(lp15
I25
aI25
aI32
aI153
aI320
aI40
aI137
aI9
aI193
aI201
aI113
aI168
aI176
aI18
aI41
aI17
aI73
aI170
aI112
aI41
aI33
aI113
aI241
aI24
aI113
aI106
aI112
aI33
aI17
aI161
aI57
aI160
aI152
aI9
aI97
aI49
aI129
aI16
aI96
aI17
aI201
aI65
aI9
aI50
aI48
aI25
aI192
aI232
aI721
aI202
aI81
aI49
aI32
aI33
aI88
aI41
aI48
aI185
aI65
aI201
aI56
aI106
aI9
aI97
aI208
aI49
aI17
aI624
aI9
aI113
aI9
aI32
aI177
aI25
aI105
aI89
aI154
aI145
aI249
aI241
aI32
aI121
aI49
aI17
aI176
aI128
aI1153
aI8
aI128
aI329
aI233
aI89
aI193
aI17
aI40
aI17
aI8
aI24
aI225
aI9
aI9
aI136
aI105
aI224
aI225
aI223
aI586
aI8
asS' G'
p16
(lp17
I33
aI128
aI616
aI32
aI17
aI33
aI129
aI40
aI56
aI577
aI64
aI25
aI81
aI112
aI129
aI25
aI25
aI48
aI73
aI16
aI161
aI81
aI93
aI9
aI137
aI88
aI184
aI153
aI57
aI113
aI153
aI257
aI56
asS' D'
p18
(lp19
I369
aI191
aI64
aI73
aI56
aI65
aI144
aI224
aI242
aI49
aI26
aI41
aI80
aI80
aI9
aI257
aI344
aI449
aI56
aI785
aI217
aI128
aI145
aI152
aI81
aI145
aI110
aI408
aI97
aI65
aI1017
aI41
aI193
aI225
aI64
aI177
aI88
aI145
aI8
aI80
aI137
aI241
aI41
aI80
aI113
aI8
aI201
aI104
aI56
aI208
aI64
aI160
aI89
aI81
aI16
aI152
aI41
aI433
aI82
asS' E'
p20
(lp21
I125
aI521
aI113
aI89
aI169
aI136
aI249
aI193
aI137
aI41
aI176
aI72
aI129
aI8
aI265
aI225
aI121
aI137
aI304
aI249
aI186
aI96
aI112
aI49
aI184
aI72
aI216
aI113
aI888
aI17
aI9
aI216
aI249
aI161
aI170
aI89
aI17
aI88
aI41
aI113
aI73
aI113
aI144
aI201
aI201
aI225
aI249
aI40
aI72
aI185
aI113
aI137
aI89
aI24
aI1064
aI65
aI121
aI9
aI65
aI89
aI233
aI192
aI24
aI25
aI8
aI240
aI401
aI160
aI49
aI296
aI16
aI8
aI40
aI112
aI112
aI41
aI8
aI144
aI48
asS' J'
p22
(lp23
I104
aI433
aI97
aI81
aI360
asS' K'
p24
(lp25
I593
aI89
aI465
aI401
aI129
aI456
aI737
asS' H'
p26
(lp27
I104
aI73
aI216
aI151
aI104
aI817
aI192
aI2576
aI200
aI167
aI184
aI184
aI129
aI249
aI241
aI497
aI497
aI448
aI121
aI128
aI137
aI392
aI305
aI97
aI176
aI113
aI249
aI208
aI193
aI185
aI192
aI73
aI72
aI169
aI80
aI585
aI144
aI64
aI128
aI152
aI128
aI145
aI129
aI345
aI201
aI104
aI297
aI153
aI192
aI408
aI257
aI233
aI73
aI128
aI153
aI201
aI144
aI137
aI193
aI424
aI320
aI449
aI169
aI1104
aI121
aI89
aI120
asS' I'
p28
(lp29
I80
aI472
aI145
aI136
aI192
aI113
aI112
aI88
aI185
aI273
aI112
aI97
aI313
aI201
aI112
aI136
aI105
aI97
aI105
aI97
aI545
aI120
aI105
aI113
aI136
aI152
aI128
aI168
aI121
aI137
aI112
aI137
aI96
aI121
aI105
aI112
aI185
aI96
aI160
aI97
aI192
aI105
aI96
aI184
aI337
aI128
aI73
aI353
aI113
aI104
aI112
aI89
aI1017
aI113
aI113
aI113
aI137
aI520
aI97
aI121
aI113
aI112
aI176
aI113
aI113
aI80
aI80
aI89
aI80
aI97
aI97
aI113
aI120
aI153
aI281
aI121
aI176
aI345
aI121
aI97
aI128
aI905
aI817
aI97
aI129
aI161
aI129
aI105
aI113
aI113
aI152
aI104
aI273
aI113
aI89
aI97
aI105
aI105
aI112
aI88
aI105
aI432
asS' N'
p30
(lp31
I97
aI121
aI168
aI184
aI80
aI80
aI80
aI137
aI128
aI136
aI96
aI114
aI113
aI192
aI96
aI161
aI97
aI112
aI88
aI80
aI89
aI88
aI97
aI96
aI81
aI103
aI105
aI113
aI105
aI113
aI273
aI169
aI168
aI135
asS' O'
p32
(lp33
I176
aI168
aI193
aI177
aI113
aI113
aI161
aI97
aI114
aI96
aI112
aI216
aI329
aI112
aI105
aI193
aI113
aI177
aI241
aI104
aI480
aI105
aI169
aI281
aI121
aI97
aI160
aI105
aI105
aI96
aI105
aI152
aI769
aI105
aI113
aI113
aI217
aI385
aI288
aI97
aI177
aI136
aI112
aI113
aI120
aI98
aI121
aI386
aI129
aI201
aI112
aI104
aI104
aI129
aI104
aI112
aI113
aI105
aI193
aI112
aI185
aI97
aI96
aI168
aI105
aI185
aI137
aI129
aI393
aI194
aI129
aI104
aI128
aI105
aI648
aI192
aI136
aI121
aI457
aI152
aI113
aI113
aI136
aI120
aI217
aI281
aI113
aI114
aI112
aI144
aI369
aI185
aI112
aI201
aI248
aI112
aI177
aI177
aI105
aI104
aI217
aI136
aI112
aI129
aI137
asS' L'
p34
(lp35
I553
aI113
aI320
aI345
aI120
aI152
aI97
aI217
aI120
aI208
aI121
aI113
aI136
aI97
aI104
aI225
aI96
aI137
aI104
aI89
aI297
aI113
aI96
aI144
aI623
aI303
aI128
aI217
aI161
aI216
aI177
asS' M'
p36
(lp37
I137
aI336
aI329
aI113
aI104
aI104
aI104
aI145
aI105
aI176
aI185
aI145
aI120
aI168
aI105
aI137
aI121
aI120
aI169
aI135
aI120
aI97
aI121
aI112
aI185
aI40
aI392
aI105
aI185
aI105
aI113
aI73
aI113
aI129
aI153
aI113
aI137
aI89
aI120
aI80
aI104
aI90
aI377
aI128
aI121
aI136
aI81
aI81
aI112
aI200
aI192
aI112
aI81
aI105
aI217
aI129
aI105
aI128
aI145
aI113
aI104
aI118
aI113
aI112
aI105
aI88
aI184
aI385
aI177
aI2121
aI209
aI104
aI120
aI145
aI184
asS' R'
p38
(lp39
I32
aI208
aI392
aI65
aI16
aI201
aI306
aI104
aI72
aI152
aI129
aI409
aI48
aI104
aI208
aI169
aI265
aI176
aI512
aI2272
aI240
aI109
aI113
aI137
aI225
aI144
aI225
aI417
aI161
aI153
aI145
aI208
aI144
aI336
aI32
aI57
aI344
aI144
aI313
aI281
aI297
aI249
aI183
aI128
asS' S'
p40
(lp41
I208
aI89
aI48
aI40
aI57
aI56
aI41
aI113
aI40
aI120
aI24
aI25
aI185
aI1033
aI16
aI9
aI25
aI192
aI145
aI8
aI24
aI17
aI25
aI56
aI256
aI321
aI33
aI73
aI41
aI33
aI152
aI144
aI137
aI153
aI392
aI161
aI377
aI352
aI168
aI96
aI321
aI137
aI160
aI40
aI313
aI104
aI65
aI184
aI96
aI64
aI200
aI108
aI49
aI65
aI321
aI65
aI41
aI448
aI33
aI48
aI9
aI56
aI945
aI25
aI120
aI9
aI9
aI16
aI129
aI56
aI161
aI120
aI129
aI65
aI512
aI121
aI745
aI97
aI49
aI121
aI40
aI128
aI49
aI105
aI16
aI48
aI345
aI56
aI57
aI217
aI49
aI113
aI56
aI106
aI24
aI72
aI25
aI120
aI33
aI40
aI80
aI25
aI217
aI41
aI49
aI65
aI48
aI136
aI8
aI24
aI49
aI31
aI185
aI1392
aI9
aI17
aI513
aI111
aI17
aI33
aI160
aI209
aI185
aI193
aI193
aI304
aI152
aI49
aI25
aI33
aI32
aI130
aI16
aI225
aI56
aI160
aI160
aI159
aI152
aI24
aI40
aI25
aI24
aI24
asS' P'
p42
(lp43
I128
aI137
aI184
aI112
aI209
aI121
aI201
aI103
aI121
aI137
aI113
aI561
aI200
aI137
aI120
aI184
aI145
aI145
aI449
aI128
aI128
aI113
aI209
aI144
aI128
aI137
aI113
aI112
aI137
aI185
aI145
aI112
aI128
aI153
aI337
aI121
aI128
aI113
aI112
aI129
aI288
aI152
aI184
aI273
aI160
aI169
aI273
aI153
aI201
aI145
aI208
aI121
aI144
aI144
asS' Q'
p44
(lp45
I193
aI176
aI105
aI457
aI992
asS' V'
p46
(lp47
I88
aI233
aI193
aI193
aI73
aI177
aI24
aI8
aI145
aI89
asS' W'
p48
(lp49
I17
aI40
aI9
aI57
aI49
aI281
aI273
aI105
aI145
aI9
aI9
aI24
aI17
aI273
aI57
aI1153
aI49
aI184
aI24
aI192
aI168
aI297
aI97
aI9
aI33
aI129
aI40
aI16
aI24
aI80
aI1025
aI56
aI40
aI97
aI153
aI57
aI114
aI208
aI313
aI40
aI153
aI185
aI161
aI346
aI41
aI65
aI41
aI1401
aI25
aI64
aI745
aI81
aI241
aI32
aI160
aI64
aI112
aI169
aI272
aI281
aI553
aI265
aI57
aI305
aI89
asS' T'
p50
(lp51
I16
aI216
aI104
aI281
aI289
aI8
aI56
aI81
aI41
aI17
aI153
aI136
aI184
aI153
aI129
aI9
aI120
aI144
aI41
aI8
aI152
aI240
aI121
aI201
aI24
aI169
aI217
aI25
aI121
aI129
aI95
aI8
aI168
aI57
aI49
aI25
aI200
aI161
aI177
aI32
aI1337
aI113
aI105
aI137
aI113
aI369
aI408
aI17
aI89
aI265
aI65
aI168
aI120
aI97
aI185
aI241
aI49
aI121
aI321
aI97
aI65
aI200
aI392
aI8
aI40
aI360
aI201
aI136
aI217
aI57
aI129
aI144
aI97
aI185
aI49
aI193
aI65
aI8
aI104
aI152
aI578
aI48
aI26
aI137
aI1217
aI129
aI401
aI136
aI224
aI16
aI8
aI216
aI96
aI65
aI593
aI48
aI193
aI130
aI24
aI33
aI65
aI249
aI353
aI161
aI233
aI129
aI120
aI129
aI145
aI273
aI25
aI48
aI121
aI272
aI136
aI128
aI177
aI9
aI72
aI113
aI65
aI161
aI9165
aI105
aI169
aI33
aI169
aI9
aI17
aI17
aI97
aI64
aI136
aI153
aI97
aI72
aI201
aI113
aI41
aI169
aI25
aI25
aI152
aI73
aI176
aI161
aI240
aI25
aI8
aI32
aI92
aI385
aI25
aI105
aI209
aI121
aI48
aI8
aI144
aI177
aI145
aI136
aI168
aI313
aI201
aI25
aI48
aI185
aI97
aI49
aI33
aI193
aI137
aI16
aI208
aI40
aI113
aI81
aI112
aI112
aI49
aI169
aI17
aI329
aI121
aI153
aI160
aI201
aI56
aI105
aI137
aI74
aI41
aI97
aI8
aI185
aI105
aI185
aI24
aI224
aI232
aI9
aI208
asS'G '
p52
(lp53
I80
aI161
aI73
aI33
aI33
aI41
aI41
aI9
aI80
aI49
aI33
aI32
aI8
aI129
aI1305
aI34
aI41
aI8
aI25
aI1217
aI64
aI1768
aI104
aI80
aI57
aI41
aI113
aI1
aI57
aI89
aI121
aI73
aI113
aI25
aI32
aI26
aI2961
aI73
aI25
aI161
aI745
aI137
aI41
aI161
aI48
aI48
aI48
aI112
aI33
aI25
aI40
aI17
aI41
aI24
aI25
aI57
aI729
aI65
aI233
aI272
aI64
aI3257
aI137
aI17
aI90
aI89
aI56
aI640
aI57
aI18
aI32
aI208
aI729
aI48
aI57
aI112
aI48
aI57
aI88
aI16
aI97
aI33
aI665
asS' Y'
p54
(lp55
I113
aI73
aI88
aI369
aI489
aI9
aI161
aI24
aI73
aI49
aI57
aI81
aI41
aI49
aI161
aI57
aI185
aI88
aI9
aI41
aI96
aI49
aI385
aI9
aI64
aI65
aI281
aI97
aI73
aI528
aI201
aI1031
aI8
aI49
aI57
aI56
aI25
aI32
aI400
aI145
aI136
aI1553
aI32
aI160
aI9
aI169
aI33
aI47
aI153
aI496
aI161
aI41
aI681
aI8
aI169
aI104
aI1449
aI808
aI137
aI49
aI3921
aI89
aI41
aI225
aI168
aI64
aI184
aI89
aI161
aI153
aI49
aI153
aI49
aI193
aI129
aI177
aI169
aI473
aI105
aI17
aI49
aI81
aI248
aI193
aI241
asS'  '
p56
(lp57
I570
aI113
asS'GT'
p58
(lp59
I953
asS'GS'
p60
(lp61
I122
aI137
aI137
aI688
aI144
aI840
aI185
asS'GR'
p62
(lp63
I128
aI233
aI217
aI136
aI119
aI217
aI161
aI256
aI128
asS'GY'
p64
(lp65
I1089
asS' 2'
p66
(lp67
I113
aI321
asS' 3'
p68
(lp69
I473
aI329
aI89
aI522
aI345
asS'GE'
p70
(lp71
I40
aI257
aI49
aI40
aI137
aI80
aI225
aI217
aI25
aI23
aI25
aI40
aI145
aI88
aI73
aI112
aI193
aI65
aI153
aI9
aI49
aI88
aI129
asS' 1'
p72
(lp73
I89
aI65
aI153
aI184
aI16
asS' 6'
p74
(lp75
I617
aI1857
aI1049
asS'GA'
p76
(lp77
I81
aI914
aI176
aI104
aI97
aI73
aI160
asS' 5'
p78
(lp79
I121
aI233
asS'GO'
p80
(lp81
I128
aI1
aI24
aI186
aI161
aI17
aI8
aI80
aI16
aI257
aI8
asS'GN'
p82
(lp83
I121
aI24
aI432
asS' 8'
p84
(lp85
I65
asS'GL'
p86
(lp87
I41
asS'GI'
p88
(lp89
I73
aI112
aI64
aI32
aI81
aI17
aI241
aI49
aI192
asS'GH'
p90
(lp91
I81
aI16
aI49
aI89
aI41
aI49
aI32
aI65
aI25
aI25
aI9
aI65
aI97
aI121
aI25
aI73
aI48
aI152
aI24
aI49
aI32
aI161
aI64
aI16
aI89
aI41
aI33
aI9
aI112
asS' \x08'
p92
(lp93
I1265
aI376
aI991
aI849
asS'OK'
p94
(lp95
I105
aI129
aI201
aI519
aI112
aI113
aI104
aI960
aI104
aI105
aI105
aI129
asS'VO'
p96
(lp97
I105
aI73
aI41
aI24
aI65
asS'M '
p98
(lp99
I137
aI96
aI201
aI393
aI201
aI121
aI104
aI113
aI88
aI89
aI153
aI97
aI121
aI97
aI97
aI169
aI113
aI201
aI153
aI136
aI113
aI104
aI185
aI113
aI96
aI136
aI112
asS'F '
p100
(lp101
I49
aI96
aI73
aI256
aI89
aI56
aI41
aI56
aI105
aI72
aI73
aI56
aI168
aI49
aI41
aI33
aI49
aI33
aI41
aI57
aI49
aI25
aI41
aI32
aI57
aI249
aI48
aI64
aI569
aI49
aI64
aI41
aI32
aI673
aI57
aI25
aI17
aI97
aI65
aI65
aI8
aI88
aI49
aI24
aI57
aI105
aI40
aI88
aI72
aI81
aI57
asS'M\x08'
p102
(lp103
I448
asS' \xdb'
p104
(lp105
I337
asS'M\xba'
p106
(lp107
I161
asS'ZE'
p108
(lp109
I114
aI88
aI89
asS' \xbc'
p110
(lp111
I129
asS'ME'
p112
(lp113
I16
aI161
aI64
aI33
aI9
aI176
aI73
aI120
aI48
aI97
aI41
aI32
aI200
aI154
aI177
aI152
aI97
aI17
aI33
aI345
aI58
aI168
aI57
aI208
aI137
aI8
aI161
aI8
aI8
aI105
aI49
aI17
aI176
aI89
aI96
aI41
aI33
aI8
aI49
aI177
aI32
aI49
aI17
aI32
aI193
aI136
aI8
aI529
aI8
aI193
aI209
aI241
asS'MG'
p114
(lp115
I240
asS'MF'
p116
(lp117
I25
aI312
aI368
aI89
aI217
aI504
asS'MA'
p118
(lp119
I665
aI8
aI185
aI15
aI168
aI48
aI185
aI40
aI408
aI9
aI153
aI24
aI40
aI41
aI105
aI33
aI33
aI200
aI192
aI9
aI24
aI217
aI41
aI8
aI89
aI40
aI73
aI385
aI145
aI113
aI25
aI97
asS'MB'
p120
(lp121
I144
asS'MM'
p122
(lp123
I120
aI104
aI89
asS'MO'
p124
(lp125
I89
aI88
aI73
aI186
aI73
aI160
aI73
aI161
aI89
aI145
aI161
aI97
aI114
aI113
aI89
aI80
aI80
aI96
asS'MI'
p126
(lp127
I96
aI89
aI72
aI161
aI104
aI88
aI137
aI64
aI80
aI81
aI104
aI73
aI113
aI89
aI112
asS'MU'
p128
(lp129
I153
aI146
aI105
aI137
aI119
aI129
aI304
aI127
aI129
aI129
aI160
aI137
aI248
asS'MP'
p130
(lp131
I97
aI89
aI113
aI121
aI96
aI98
aI121
aI128
aI104
aI144
aI137
aI97
aI145
asS'MS'
p132
(lp133
I73
aI113
aI176
aI25
aI81
asS'3 '
p134
(lp135
I33
aI49
aI17
aI49
aI48
asS'MY'
p136
(lp137
I170
aI161
asS'FR'
p138
(lp139
I137
aI144
aI216
aI216
aI129
aI144
aI2178
aI273
aI225
aI192
aI121
aI177
aI145
aI153
aI217
aI185
aI216
aI105
aI216
asS'FT'
p140
(lp141
I136
aI433
aI145
aI114
aI169
asS'FU'
p142
(lp143
I16
aI81
asS'FY'
p144
(lp145
I217
asS'FA'
p146
(lp147
I16
aI48
aI113
aI105
aI8
aI57
aI49
aI17
aI57
aI65
aI65
aI16
aI98
aI64
aI41
aI88
aI81
aI81
aI57
aI57
aI24
aI90
asS'FE'
p148
(lp149
I33
aI48
aI185
aI57
aI41
aI41
aI74
aI169
aI81
aI73
aI64
aI137
aI201
aI41
aI65
aI170
aI25
aI105
aI32
asS'FF'
p150
(lp151
I104
aI89
aI112
aI80
aI96
aI89
aI98
aI96
aI82
aI112
aI97
aI89
aI97
asS'FI'
p152
(lp153
I57
aI56
aI97
aI96
aI153
aI33
aI73
aI24
aI16
aI17
aI17
aI217
aI303
aI113
aI17
aI9
aI8
aI17
aI41
aI49
asS'S '
p154
(lp155
I72
aI24
aI88
aI106
aI209
aI49
aI9
aI88
aI40
aI48
aI912
aI65
aI193
aI129
aI1289
aI40
aI24
aI89
aI152
aI49
aI64
aI49
aI105
aI9
aI65
aI289
aI144
aI185
aI17
aI192
aI112
aI41
aI577
aI57
aI17
aI49
aI137
aI89
aI8
aI152
aI17
aI169
aI97
aI233
aI57
aI106
aI65
aI57
aI1
aI73
aI8
aI41
aI1
aI32
aI2217
aI56
aI265
aI177
aI9
aI24
aI9
aI1
aI193
aI105
aI32
aI105
aI185
aI49
aI57
aI201
aI65
aI600
aI32
aI1513
aI1601
aI777
aI48
aI89
aI65
aI281
aI8
aI1
aI169
aI33
aI16
aI73
aI17
aI65
aI376
aI1505
aI65
aI57
aI1025
aI9
aI2905
aI7
aI385
aI2937
aI120
aI201
aI73
aI25
aI0
aI57
aI8
aI49
aI16
aI17
aI8
aI40
aI113
aI32
aI24
aI56
aI40
aI25
aI65
aI65
aI49
aI137
aI57
aI120
aI112
aI33
aI897
aI152
aI41
aI176
aI8
aI41
aI41
aI33
aI40
aI64
aI8
aI0
aI33
aI81
aI96
aI169
aI177
aI33
aI296
aI153
aI16
aI1073
aI137
aI57
aI130
aI65
aI88
aI65
aI73
aI169
aI169
aI73
aI33
aI8
aI68
aI72
aI113
aI64
aI40
aI9
aI47
aI89
aI49
aI57
aI57
aI225
aI49
aI233
aI89
aI33
aI817
aI169
aI1113
aI25
aI8
aI113
aI9
aI17
aI88
aI65
aI137
aI33
aI57
aI144
aI65
aI121
aI26
aI57
aI23
aI81
aI2073
aI25
aI129
aI41
aI225
aI56
aI40
aI24
aI49
aI25
asS'FL'
p156
(lp157
I641
asS'FO'
p158
(lp159
I25
aI129
aI48
aI88
aI320
aI16
aI641
aI81
aI32
aI64
aI33
aI40
aI25
aI17
aI120
aI56
aI81
aI112
aI128
aI25
aI9
aI673
aI56
aI25
aI97
aI729
aI40
aI56
aI192
aI2121
aI65
aI57
aI49
aI65
aI128
aI8
aI96
aI145
aI81
aI32
aI16
aI25
aI49
aI17
aI41
aI32
aI9
aI17
aI8
aI65
aI249
aI25
aI49
aI65
aI57
aI41
aI80
aI368
aI25
aI33
aI73
aI9
aI8
aI89
aI33
aI41
aI49
aI73
aI160
aI41
aI9
aI32
asS'S\x08'
p160
(lp161
I616
aI504
aI777
aI385
aI1129
asS'S\r'
p162
(lp163
I816
asS'9 '
p164
(lp165
I169
asS'\xbfH'
p166
(lp167
I265
asS'F\x08'
p168
(lp169
I329
aI1913
asS'SY'
p170
(lp171
I41
aI464
asS'SS'
p172
(lp173
I105
aI73
aI81
aI72
aI81
aI97
aI80
aI184
aI73
aI81
aI72
aI185
aI152
aI138
aI177
aI89
aI113
aI65
aI81
aI81
aI176
aI88
aI193
asS'SR'
p174
(lp175
I170
aI128
aI192
asS'SP'
p176
(lp177
I385
aI120
asS'SW'
p178
(lp179
I129
asS'SU'
p180
(lp181
I128
aI136
aI24
aI56
aI33
aI33
aI377
aI25
aI73
aI81
aI9
aI17
aI120
aI120
aI193
aI41
aI33
aI56
aI65
aI161
aI49
asS'ST'
p182
(lp183
I96
aI217
aI145
aI225
aI136
aI184
aI96
aI145
aI193
aI113
aI105
aI89
aI225
aI97
aI104
aI113
aI105
aI97
aI193
aI96
aI97
aI153
aI80
aI129
aI105
aI209
aI145
aI120
aI129
aI112
aI112
aI97
aI72
aI97
aI145
aI113
aI136
aI129
aI240
aI144
aI121
aI487
aI233
aI178
aI1073
asS'SK'
p184
(lp185
I152
aI264
aI33
aI8
aI8
aI321
aI177
asS'SI'
p186
(lp187
I48
aI88
aI137
aI201
aI17
aI49
aI57
aI321
aI152
aI144
aI145
aI9
aI184
aI136
aI185
aI40
aI138
aI177
aI49
aI16
aI49
aI25
aI144
aI169
aI24
aI233
aI9
aI161
aI73
aI25
aI25
aI136
asS'SH'
p188
(lp189
I73
aI9
aI33
aI8
aI32
aI16
aI833
aI160
aI56
aI17
aI258
aI200
aI9
aI57
aI57
aI345
aI24
aI9
aI881
aI8
aI249
aI17
aI9
asS'SO'
p190
(lp191
I16
aI145
aI33
aI73
aI385
aI153
aI352
aI249
aI24
aI8
aI57
aI121
aI41
aI128
aI65
aI296
aI33
aI64
aI176
aI465
aI88
aI193
aI9
aI25
aI121
asS'SN'
p192
(lp193
I225
aI32
aI112
asS'SM'
p194
(lp195
I25
aI113
aI130
aI24
aI160
asS'SL'
p196
(lp197
I88
aI793
aI25
aI65
aI104
aI33
aI33
aI65
aI33
aI65
aI17
aI32
aI25
aI58
aI89
aI17
aI57
aI48
aI40
aI49
aI217
aI505
aI9
aI57
aI57
aI33
aI105
aI176
aI65
aI33
aI8
aI73
aI48
aI25
aI9
aI8
aI49
aI159
aI152
aI32
aI16
aI25
aI48
asS'SC'
p198
(lp199
I72
asS'SA'
p200
(lp201
I161
aI16
aI313
aI48
aI200
aI49
aI161
asS'SF'
p202
(lp203
I80
aI143
asS'SE'
p204
(lp205
I105
aI193
aI97
aI88
aI193
aI713
aI201
aI201
aI113
aI113
aI97
aI113
aI129
aI81
aI105
aI192
aI105
aI176
aI232
aI193
aI152
aI97
aI128
aI137
aI121
aI345
aI89
aI137
aI121
aI97
aI200
aI81
aI113
aI104
aI128
aI224
aI216
aI249
aI193
aI120
aI97
aI113
aI153
aI145
aI121
aI137
aI121
aI113
aI106
aI88
aI97
aI193
aI137
aI88
aI121
aI113
aI136
aI120
aI185
aI121
aI176
aI105
aI97
aI136
asS'YI'
p206
(lp207
I1169
aI136
aI121
aI81
aI160
asS'YM'
p208
(lp209
I145
asS'S\xbe'
p210
(lp211
I280
asS'YO'
p212
(lp213
I113
aI33
aI23
aI33
aI489
aI24
aI161
aI9
aI9
aI17
aI41
aI9
aI48
aI25
aI161
aI8
aI25
aI32
aI33
aI26
aI48
aI33
aI25
aI40
aI9
aI41
aI24
aI17
aI17
aI25
aI1031
aI16
aI33
aI9
aI42
aI57
aI33
aI33
aI16
aI400
aI145
aI136
aI57
aI121
aI24
aI160
aI33
aI169
aI16
aI8
aI9
aI8
aI161
aI81
aI41
aI8
aI33
aI17
aI65
aI40
aI33
aI64
aI41
aI16
aI16
aI24
aI225
aI168
aI49
aI184
aI24
aI161
aI153
aI8
aI153
aI33
aI8
aI9
aI177
aI169
aI8
aI48
aI25
aI17
aI40
aI193
aI241
aI240
asS'S\xbc'
p214
(lp215
I17
asS'YC'
p216
(lp217
I56
asS'YE'
p218
(lp219
I49
aI177
aI169
aI152
asS'GU'
p220
(lp221
I41
aI42
aI8
aI152
aI8
aI16
aI48
aI8
aI193
aI168
aI193
aI1
aI24
aI281
asS'YP'
p222
(lp223
I168
aI243
aI176
aI192
asS'YS'
p224
(lp225
I73
aI71
aI72
aI89
aI160
aI73
asS'YR'
p226
(lp227
I57
asS'YT'
p228
(lp229
I177
asS'LD'
p230
(lp231
I376
aI32
aI225
aI513
aI24
aI137
aI256
aI49
aI120
asS'LE'
p232
(lp233
I208
aI40
aI49
aI201
aI225
aI256
aI194
aI247
aI105
aI209
aI17
aI224
aI49
aI48
aI33
aI104
aI201
aI97
aI208
aI176
aI8
aI225
aI17
aI97
aI57
aI49
aI169
aI89
aI57
aI48
aI33
aI79
aI8
aI50
aI49
aI65
aI17
aI41
aI129
aI65
aI49
aI57
aI73
aI56
aI57
aI49
aI40
aI65
aI25
aI57
aI57
aI8
aI72
aI48
aI257
aI9
aI513
aI65
aI288
aI73
aI120
aI57
aI40
aI64
aI57
aI192
aI56
aI345
aI32
aI272
aI193
aI536
aI41
aI32
aI49
aI49
aI48
aI265
aI33
aI129
aI112
aI32
aI169
aI47
aI81
aI56
aI57
aI49
aI40
aI40
aI64
aI8
aI72
aI40
aI128
aI41
aI80
aI65
aI72
aI73
asS'\xba\x08'
p234
(lp235
I1759
asS'LA'
p236
(lp237
I40
aI40
aI9
aI209
aI16
aI153
aI40
aI33
aI49
aI40
aI64
aI65
aI160
aI24
aI249
aI9
aI97
aI49
aI41
aI97
aI96
aI65
aI25
aI16
aI16
aI16
aI241
aI8
aI105
aI33
aI32
aI216
aI176
aI64
asS'LN'
p238
(lp239
I808
asS'LO'
p240
(lp241
I105
aI81
aI128
aI112
aI168
aI96
aI128
aI104
aI111
aI129
aI112
aI105
aI88
aI128
aI89
aI104
aI105
aI121
aI289
aI112
aI97
aI105
aI128
aI105
asS'LL'
p242
(lp243
I73
aI81
aI89
aI72
aI81
aI176
aI105
aI73
aI81
aI72
aI80
aI81
aI89
aI97
aI66
aI65
aI89
aI89
aI112
aI96
aI89
aI72
aI89
aI104
aI87
aI80
aI58
asS'LK'
p244
(lp245
I129
aI128
aI160
aI272
asS'LI'
p246
(lp247
I105
aI128
aI144
aI257
aI144
aI137
aI153
aI121
aI105
aI145
aI129
aI145
aI161
aI121
aI113
aI177
aI153
aI153
aI144
aI161
asS'LV'
p248
(lp249
I49
asS'LT'
p250
(lp251
I72
aI48
aI193
aI65
aI185
aI104
aI88
aI9
aI248
aI40
aI201
aI48
aI889
aI57
aI17
aI177
aI161
asS'LU'
p252
(lp253
I168
aI152
aI194
aI152
aI137
aI168
asS'LR'
p254
(lp255
I153
asS'LS'
p256
(lp257
I82
aI65
aI8
aI49
aI64
aI385
aI1648
aI105
aI40
aI96
aI40
aI9
aI153
aI65
aI41
aI593
aI200
asS'LP'
p258
(lp259
I96
aI120
aI346
aI104
aI136
aI111
aI121
aI97
aI128
aI128
aI112
asS'LY'
p260
(lp261
I425
aI32
aI873
aI57
aI161
aI193
aI152
aI408
aI161
aI185
aI120
aI153
aI209
aI18
aI136
aI88
aI33
aI9
aI193
aI88
asS'Y\x08'
p262
(lp263
I384
aI361
aI488
asS'L '
p264
(lp265
I97
aI128
aI112
aI136
aI369
aI89
aI281
aI130
aI97
aI112
aI104
aI224
aI265
aI280
aI208
aI112
aI112
aI264
aI113
aI121
aI120
aI176
aI121
aI209
aI121
aI153
aI113
aI193
aI96
aI473
aI217
aI128
aI145
aI96
asS'H '
p266
(lp267
I113
aI153
aI192
aI185
aI105
aI649
aI145
aI103
aI129
aI113
aI137
aI129
aI105
aI112
aI240
aI113
aI112
aI193
aI129
aI137
aI225
aI185
aI129
aI552
aI792
aI297
aI152
aI137
aI168
aI161
aI145
aI105
aI137
aI304
aI201
aI144
aI129
aI121
aI121
aI104
aI216
aI209
aI105
aI145
aI177
aI121
asS'GG'
p268
(lp269
I193
asS'GF'
p270
(lp271
I93
asS'Y '
p272
(lp273
I216
aI161
aI1328
aI161
aI217
aI137
aI1137
aI144
aI137
aI361
aI153
aI129
aI160
aI793
aI160
aI177
aI432
aI153
aI201
aI241
aI3409
aI273
aI137
aI144
aI129
aI121
aI185
aI161
aI168
aI145
aI1785
aI145
aI177
aI202
aI136
aI153
aI128
aI160
aI145
aI145
aI153
aI177
aI216
aI128
aI145
aI112
aI160
aI208
aI129
aI144
aI176
aI225
aI2952
aI153
aI328
aI201
aI137
aI128
aI169
aI168
aI64
aI161
aI225
aI137
aI176
aI681
aI193
aI249
aI881
aI432
aI153
aI273
aI145
aI633
aI273
aI113
aI168
aI217
aI2256
aI320
aI234
aI1169
aI152
aI202
aI177
aI984
aI129
aI841
aI128
asS'L\x08'
p274
(lp275
I256
asS'UR'
p276
(lp277
I41
aI17
aI88
aI81
aI489
aI209
aI49
aI73
aI1648
aI81
aI33
aI177
aI7
aI8
aI48
aI40
aI25
aI57
aI25
aI41
aI25
aI33
aI40
aI49
aI33
aI184
aI24
aI33
aI17
aI73
aI17
aI217
aI473
aI25
aI73
aI200
aI48
aI144
aI9
aI55
aI56
aI17
aI57
aI24
aI89
aI72
aI208
aI145
aI25
aI225
aI49
aI41
aI456
aI16
aI137
aI48
asS' 4'
p278
(lp279
I257
aI233
aI49
aI400
asS'RT'
p280
(lp281
I177
aI129
aI136
aI209
aI122
aI120
aI417
aI249
aI281
aI145
aI160
aI129
aI297
aI168
aI136
aI120
aI201
aI184
aI160
aI104
aI145
aI81
asS'RU'
p282
(lp283
I33
aI48
aI96
aI40
aI65
aI129
aI217
aI152
asS'RV'
p284
(lp285
I504
aI145
aI241
aI144
aI136
aI601
aI161
aI1376
aI192
asS' 9'
p286
(lp287
I1120
asS'RR'
p288
(lp289
I112
asS'RS'
p290
(lp291
I88
aI89
aI81
aI98
aI617
aI249
aI120
aI128
aI152
aI144
aI185
aI73
aI129
aI208
aI88
asS'RY'
p292
(lp293
I113
aI25
aI48
aI16
aI72
aI97
aI81
aI16
aI49
aI64
aI57
aI128
aI9
asS'RD'
p294
(lp295
I265
aI200
asS'RE'
p296
(lp297
I72
aI48
aI136
aI144
aI392
aI48
aI89
aI81
aI296
aI256
aI505
aI8
aI64
aI209
aI153
aI9
aI73
aI41
aI104
aI105
aI72
aI152
aI129
aI176
aI409
aI48
aI104
aI208
aI145
aI217
aI120
aI169
aI177
aI217
aI217
aI81
aI176
aI64
aI210
aI705
aI74
aI512
aI144
aI248
aI201
aI105
aI193
aI240
aI109
aI592
aI49
aI193
aI90
aI66
aI8
aI193
aI273
aI184
aI137
aI970
aI137
aI225
aI89
aI144
aI42
aI225
aI72
aI153
aI112
aI49
aI24
aI57
aI336
aI57
aI217
aI105
aI145
aI128
aI64
aI65
aI200
aI8
aI649
aI89
aI56
aI16
aI97
aI129
aI48
aI113
aI144
aI49
aI313
aI209
aI208
aI225
aI144
aI63
aI81
aI41
aI145
aI104
aI183
aI145
aI122
aI80
aI128
asS'RF'
p298
(lp299
I497
aI127
aI280
asS'RG'
p300
(lp301
I145
aI136
asS'2 '
p302
(lp303
I97
aI41
aI56
asS'RA'
p304
(lp305
I192
aI233
aI8
aI217
aI41
aI9
aI1648
aI73
aI56
aI17
aI25
aI176
aI145
aI89
aI41
aI32
aI97
aI65
aI105
aI168
aI281
aI88
aI49
aI64
aI169
asS'RB'
p306
(lp307
I920
asS'RC'
p308
(lp309
I337
aI120
aI265
aI256
aI305
aI249
aI145
aI1001
aI593
aI161
asS'RL'
p310
(lp311
I16
aI89
aI33
aI25
aI96
aI65
asS'RM'
p312
(lp313
I176
asS'RN'
p314
(lp315
I17
aI217
aI24
aI34
aI561
aI146
asS'RO'
p316
(lp317
I8
aI41
aI25
aI216
aI55
aI48
aI1465
aI8
aI121
aI121
aI233
aI33
aI144
aI145
aI65
aI113
aI9
aI49
aI153
aI201
aI225
aI128
aI105
aI8
aI192
aI17
aI177
aI177
aI257
aI74
aI128
aI41
aI297
aI217
aI33
aI49
aI185
aI48
aI209
aI9
aI9
aI33
aI216
aI24
aI8
aI137
aI8
asS'RI'
p318
(lp319
I89
aI105
aI33
aI185
aI89
aI49
aI16
aI217
aI9
aI88
aI65
aI273
aI144
aI49
aI201
aI17
aI105
aI889
aI17
aI119
aI17
aI48
aI65
aI41
aI25
aI81
aI57
aI114
aI88
aI10
aI96
aI144
aI25
aI49
aI65
aI32
aI25
aI17
aI7
aI33
aI40
aI41
aI81
aI49
aI25
aI49
aI58
aI8
aI72
aI25
aI42
asS'RK'
p320
(lp321
I16
aI65
aI122
aI9
asS'R '
p322
(lp323
I73
aI9
aI8
aI41
aI9
aI32
aI0
aI33
aI49
aI33
aI73
aI128
aI33
aI600
aI73
aI8
aI297
aI17
aI32
aI8
aI129
aI41
aI24
aI153
aI32
aI1064
aI33
aI73
aI168
aI41
aI57
aI105
aI71
aI40
aI15
aI73
aI9
aI32
aI17
aI25
aI49
aI17
aI57
aI89
aI9
aI0
aI56
aI184
aI696
aI73
aI105
aI24
aI96
aI56
aI40
aI33
aI57
aI65
aI121
aI96
aI9
aI41
aI56
aI40
aI89
aI48
aI49
aI23
aI15
aI17
aI49
aI1
aI177
aI154
aI89
aI65
aI281
aI89
aI25
aI8
aI97
aI64
aI33
aI129
aI57
aI17
aI200
aI65
aI49
aI73
aI41
aI88
aI49
aI88
aI57
aI288
aI40
aI137
aI136
aI25
aI81
aI89
aI32
aI65
aI33
aI40
aI65
aI73
aI42
aI26
aI186
aI72
aI121
aI41
aI153
aI168
aI57
aI560
aI72
aI49
aI145
aI49
aI57
aI64
aI8
aI50
aI88
aI1
aI49
aI26
aI49
aI73
aI112
aI87
aI177
aI41
aI73
aI33
aI57
aI41
aI216
aI17
aI32
asS'R\x08'
p324
(lp325
I1041
aI368
aI391
aI425
asS'E\x08'
p326
(lp327
I432
aI377
aI249
aI689
aI433
aI1360
asS'8 '
p328
(lp329
I32
asS'VC'
p330
(lp331
I128
asS'E '
p332
(lp333
I32
aI25
aI121
aI152
aI8
aI25
aI25
aI8
aI185
aI33
aI1
aI48
aI17
aI120
aI616
aI161
aI153
aI113
aI18
aI153
aI25
aI9
aI17
aI40
aI25
aI41
aI18
aI41
aI240
aI81
aI145
aI25
aI153
aI1624
aI1200
aI56
aI48
aI32
aI312
aI16
aI33
aI49
aI17
aI289
aI183
aI25
aI17
aI16
aI8
aI33
aI64
aI16
aI2256
aI8
aI17
aI2800
aI41
aI761
aI129
aI409
aI25
aI17
aI81
aI31
aI0
aI145
aI191
aI41
aI25
aI41
aI49
aI193
aI265
aI64
aI145
aI80
aI185
aI65
aI33
aI17
aI177
aI8
aI25
aI145
aI73
aI121
aI9
aI160
aI24
aI80
aI201
aI25
aI33
aI41
aI25
aI16
aI16
aI57
aI176
aI105
aI152
aI56
aI9
aI49
aI113
aI97
aI152
aI297
aI65
aI129
aI137
aI25
aI90
aI1
aI161
aI154
aI41
aI66
aI145
aI729
aI96
aI152
aI17
aI32
aI40
aI153
aI73
aI49
aI161
aI41
aI25
aI23
aI129
aI177
aI25
aI137
aI273
aI24
aI161
aI9
aI161
aI17
aI97
aI25
aI9
aI42
aI33
aI33
aI1
aI49
aI25
aI145
aI16
aI121
aI193
aI9
aI57
aI33
aI121
aI49
aI112
aI33
aI17
aI64
aI33
aI113
aI105
aI33
aI25
aI152
aI168
aI1
aI88
aI113
aI105
aI33
aI185
aI32
aI128
aI40
aI24
aI81
aI8
aI9
aI57
aI57
aI193
aI57
aI8
aI184
aI33
aI128
aI17
aI8
aI0
aI48
aI24
aI9
aI25
aI184
aI3199
aI16
aI145
aI26
aI209
aI16
aI0
aI9
aI25
aI48
aI8142
aI57
aI16
aI17
aI25
aI97
aI663
aI1
aI25
aI17
aI48
aI136
aI72
aI88
aI25
aI32
aI49
aI57
aI625
aI16
aI89
aI17
aI216
aI1
aI160
aI48
aI129
aI168
aI104
aI56
aI9
aI25
aI41
aI96
aI89
aI73
aI249
aI129
aI96
aI65
aI417
aI96
aI48
aI9
aI169
aI16
aI33
aI17
aI41
aI0
aI705
aI9
aI105
aI16
aI128
aI168
aI176
aI152
aI41
aI33
aI193
aI73
aI8
aI17
aI33
aI17
aI10
asS'IP'
p334
(lp335
I153
aI176
aI145
aI464
aI168
aI169
asS'EM'
p336
(lp337
I152
aI40
aI361
aI80
aI33
aI137
aI137
aI17
aI24
aI168
aI9
aI9
aI1
aI40
aI65
aI9
aI1993
aI63
aI65
aI128
aI40
asS'EL'
p338
(lp339
I57
aI25
aI32
aI584
aI41
aI145
aI33
aI65
aI8
aI32
aI8
aI65
aI25
aI89
aI160
aI200
aI192
aI417
aI201
aI121
aI49
aI129
aI72
aI112
aI48
aI97
aI40
aI97
aI56
aI56
aI41
asS'EO'
p340
(lp341
I89
aI57
aI49
aI208
asS'EN'
p342
(lp343
I185
aI113
aI24
aI8
aI8
aI49
aI41
aI184
aI49
aI0
aI81
aI176
aI57
aI73
aI9
aI192
aI25
aI0
aI80
aI17
aI33
aI8
aI240
aI161
aI176
aI41
aI97
aI33
aI154
aI168
aI151
aI9
aI17
aI297
aI25
aI40
aI113
aI24
aI104
aI185
aI89
aI0
aI61
aI49
aI57
aI112
aI8
aI9
aI17
aI144
aI9
aI137
aI81
aI505
aI49
aI9
aI137
aI177
aI80
aI57
aI16
aI17
aI345
aI32
aI9
aI34
aI25
aI401
aI16
aI24
aI88
aI160
aI24
aI120
asS'EI'
p344
(lp345
I113
aI137
aI9
aI145
aI24
aI8
aI33
asS'EK'
p346
(lp347
I200
aI232
asS'EE'
p348
(lp349
I80
aI105
aI74
aI216
aI97
aI113
aI81
aI193
aI73
aI192
aI88
aI97
aI97
aI201
aI80
aI97
aI185
aI97
aI200
aI105
aI96
aI177
aI185
aI96
aI232
aI177
aI177
aI193
aI184
aI169
aI97
aI113
aI161
aI97
aI96
aI80
aI96
aI81
aI88
aI105
aI209
aI184
aI169
aI169
aI192
aI95
aI105
aI97
aI104
aI105
aI193
aI201
aI185
aI177
aI104
aI177
aI89
aI72
aI201
aI97
aI209
aI177
aI184
aI161
aI152
aI193
aI153
aI113
aI112
asS'ED'
p350
(lp351
I177
aI185
aI97
aI137
aI96
aI17
aI88
aI177
aI24
aI112
aI97
aI89
aI121
aI633
aI137
aI121
aI65
aI185
aI65
aI105
aI153
aI96
aI121
aI225
aI89
aI73
aI89
aI288
aI169
aI89
aI161
aI112
aI103
aI41
aI407
aI120
aI104
aI393
aI121
aI96
aI120
aI112
aI185
aI137
aI121
aI136
aI96
aI121
aI105
aI96
aI96
aI112
asS'EG'
p352
(lp353
I49
aI289
aI208
aI489
aI113
aI56
aI88
aI329
aI241
aI96
aI80
aI193
aI168
aI193
aI89
aI64
aI281
aI152
aI192
asS'EF'
p354
(lp355
I120
aI185
aI81
aI65
aI89
aI81
aI88
aI105
aI65
aI81
aI96
aI41
aI97
aI81
aI89
asS'EA'
p356
(lp357
I209
aI125
aI161
aI521
aI89
aI33
aI105
aI9
aI64
aI136
aI1240
aI137
aI9
aI97
aI17
aI113
aI9
aI152
aI152
aI153
aI17
aI105
aI129
aI121
aI57
aI24
aI225
aI121
aI105
aI97
aI176
aI304
aI200
aI89
aI48
aI33
aI154
aI8
aI152
aI8
aI104
aI9
aI72
aI216
aI24
aI9
aI185
aI888
aI41
aI121
aI209
aI80
aI216
aI113
aI249
aI170
aI144
aI9
aI97
aI113
aI17
aI9
aI193
aI201
aI113
aI17
aI113
aI33
aI152
aI8
aI23
aI145
aI73
aI192
aI177
aI169
aI160
aI8
aI24
aI127
aI33
aI47
aI129
aI193
aI217
aI272
aI32
aI56
aI8
aI96
asS'EC'
p358
(lp359
I104
aI112
aI113
aI177
aI321
aI112
aI152
aI192
aI105
aI121
aI137
aI113
aI113
aI104
aI185
aI97
aI121
aI113
aI88
aI136
aI449
aI105
aI121
aI105
aI129
asS'EY'
p360
(lp361
I1442
aI40
aI88
aI160
aI136
aI144
asS'EX'
p362
(lp363
I129
aI153
aI144
aI128
aI160
aI137
aI153
aI145
aI265
aI129
aI162
aI129
aI161
aI137
aI152
aI137
aI665
aI153
aI560
aI281
aI184
aI785
aI137
aI161
asS'EU'
p364
(lp365
I97
asS'ET'
p366
(lp367
I592
aI120
aI112
aI105
aI105
aI145
aI169
aI121
aI144
aI88
aI1112
aI89
aI81
aI137
aI161
aI89
aI137
aI97
aI649
aI129
aI145
aI113
aI1168
aI104
aI80
aI88
aI160
aI80
aI40
aI136
aI105
aI57
aI137
aI73
aI184
aI113
aI88
asS'EW'
p368
(lp369
I136
asS'EV'
p370
(lp371
I201
aI81
aI73
aI72
aI113
aI80
aI81
aI57
aI65
aI129
aI121
aI97
aI65
aI88
asS'EQ'
p372
(lp373
I233
asS'EP'
p374
(lp375
I73
aI17
aI89
aI33
aI25
aI25
aI33
aI1073
aI232
aI16
aI185
aI16
aI17
aI177
aI9
aI121
aI177
aI249
aI177
aI193
aI184
aI169
aI49
aI25
aI161
aI16
aI24
aI17
aI209
aI169
aI169
aI192
aI8
aI17
aI185
aI193
aI201
aI185
aI177
aI8
aI177
aI201
aI17
aI209
aI177
aI184
aI161
aI152
aI193
aI153
aI65
aI8
asS'ES'
p376
(lp377
I144
aI209
aI105
aI128
aI193
aI120
aI136
aI105
aI192
aI112
aI177
aI128
aI113
aI88
aI105
aI121
aI104
aI136
aI233
aI104
aI105
aI121
aI120
aI193
aI89
aI201
aI105
aI880
aI184
aI153
aI128
aI257
aI121
aI120
aI122
aI145
aI112
aI112
aI128
aI145
aI105
aI112
aI113
aI96
aI105
aI135
aI105
aI136
aI105
aI104
aI258
aI96
aI121
aI201
aI98
aI145
aI97
aI104
aI121
aI129
aI105
aI161
aI129
aI114
aI145
aI96
aI128
aI225
aI233
aI176
aI153
aI161
aI1665
aI176
aI97
aI121
aI113
aI97
aI225
aI97
asS'ER'
p378
(lp379
I185
aI192
aI136
aI41
aI120
aI65
aI1
aI193
aI305
aI201
aI201
aI106
aI17
aI64
aI73
aI177
aI17
aI105
aI80
aI65
aI369
aI176
aI232
aI193
aI8
aI152
aI225
aI201
aI209
aI217
aI280
aI841
aI9
aI49
aI17
aI177
aI24
aI81
aI113
aI218
aI216
aI201
aI154
aI41
aI129
aI113
aI105
aI72
aI240
aI193
aI41
aI152
aI176
aI176
aI23
aI162
aI9
aI161
aI128
aI169
aI0
aI89
aI72
aI41
aI136
aI1
aI97
aI841
aI224
aI56
aI41
aI25
aI56
aI216
aI185
aI57
aI168
aI152
aI33
aI33
aI49
aI57
aI377
aI153
aI40
aI305
aI8
aI176
aI265
aI9
aI377
aI65
aI9
aI8
aI169
aI57
aI136
aI168
aI160
aI73
aI145
aI33
aI122
aI137
aI113
aI40
asS'\x10N'
p380
(lp381
I96
asS'K '
p382
(lp383
I103
aI105
aI121
aI120
aI113
aI113
aI168
aI105
aI128
aI105
aI121
aI129
aI88
aI97
aI129
aI185
aI113
aI129
aI169
aI120
asS'IB'
p384
(lp385
I304
aI256
aI97
aI248
aI137
aI144
asS'X '
p386
(lp387
I48
aI17
aI48
asS'K\x08'
p388
(lp389
I248
aI464
asS'XI'
p390
(lp391
I41
aI233
aI17
aI24
aI33
aI41
asS'XC'
p392
(lp393
I105
aI48
aI65
aI345
aI265
aI56
aI48
aI145
aI65
asS'XA'
p394
(lp395
I111
asS'XE'
p396
(lp397
I192
aI255
aI305
aI377
aI176
asS'WO'
p398
(lp399
I161
aI17
asS'XP'
p400
(lp401
I40
aI577
aI97
aI96
aI248
asS'XT'
p402
(lp403
I136
asS'11'
p404
(lp405
I97
asS'KB'
p406
(lp407
I384
asS'12'
p408
(lp409
I136
asS'KE'
p410
(lp411
I305
aI129
aI33
aI25
aI49
aI24
aI49
aI72
aI145
aI25
aI17
aI105
aI10
aI97
aI161
aI424
aI57
aI65
aI112
aI113
aI73
aI113
aI41
aI89
aI72
aI48
aI24
aI80
aI73
aI24
aI56
aI65
aI33
aI25
aI56
aI160
aI33
aI168
aI128
aI193
asS'KI'
p412
(lp413
I111
aI121
aI121
aI97
aI112
aI113
aI89
aI120
aI88
aI127
aI97
aI88
asS'KO'
p414
(lp415
I153
aI145
asS'KN'
p416
(lp417
I80
aI89
aI768
asS'KL'
p418
(lp419
I192
asS'KS'
p420
(lp421
I201
asS'1 '
p422
(lp423
I281
aI73
asS'WN'
p424
(lp425
I9
aI8
asS'KU'
p426
(lp427
I136
asS'DO'
p428
(lp429
I16
aI17
aI32
aI32
aI257
aI344
aI25
aI145
aI408
aI105
aI16
aI225
aI48
aI9
aI201
aI1
aI152
aI16
aI25
asS'DI'
p430
(lp431
I8
aI16
aI16
aI136
aI17
aI24
aI9
aI64
aI145
aI17
aI25
aI33
aI505
aI8
aI41
aI185
aI8
aI33
aI80
aI65
aI17
aI41
aI65
aI1
aI48
aI49
aI105
aI41
aI49
asS'DD'
p432
(lp433
I88
aI88
asS'DE'
p434
(lp435
I121
aI49
aI120
aI8
aI177
aI17
aI80
aI33
aI48
aI17
aI41
aI41
aI16
aI161
aI16
aI33
aI33
aI129
aI25
aI73
aI144
aI241
aI42
aI33
aI8
aI56
aI17
aI153
aI137
asS'DA'
p436
(lp437
I191
aI17
aI145
aI152
aI110
aI105
aI49
aI40
asS'DY'
p438
(lp439
I248
aI73
aI89
aI80
aI65
aI81
aI40
aI185
aI90
asS'DV'
p440
(lp441
I114
aI121
asS'DW'
p442
(lp443
I481
asS'DT'
p444
(lp445
I208
aI313
aI193
aI177
aI185
aI305
aI128
aI153
aI721
aI249
asS'DU'
p446
(lp447
I17
aI17
aI193
aI320
aI25
aI48
aI32
aI64
aI49
aI33
aI9
aI32
aI81
aI16
aI17
aI32
aI65
aI144
aI0
aI89
aI73
aI17
asS'DR'
p448
(lp449
I248
aI136
aI113
aI137
aI152
aI209
aI138
asS'DS'
p450
(lp451
I112
aI121
aI88
aI33
aI200
aI1
aI57
aI25
aI7
aI33
aI265
aI105
aI9
aI113
aI137
aI1
aI95
aI64
aI8
aI1
aI9
aI209
aI193
asS'D\x08'
p452
(lp453
I953
aI257
aI272
asS'QU'
p454
(lp455
I168
aI145
aI64
aI33
aI457
aI992
asS'D '
p456
(lp457
I112
aI33
aI185
aI32
aI24
aI399
aI57
aI153
aI32
aI25
aI121
aI1
aI25
aI57
aI33
aI145
aI64
aI17
aI25
aI89
aI33
aI25
aI8
aI120
aI9
aI201
aI49
aI25
aI81
aI24
aI25
aI9
aI48
aI73
aI24
aI144
aI65
aI17
aI32
aI64
aI9
aI17
aI137
aI81
aI290
aI57
aI72
aI49
aI72
aI193
aI8
aI72
aI32
aI0
aI16
aI72
aI41
aI48
aI121
aI56
aI16
aI8
aI41
aI33
aI105
aI1
aI32
aI112
aI8
aI23
aI73
aI2105
aI153
aI24
aI57
aI136
aI105
aI145
aI113
aI32
aI9
aI25
aI24
aI64
aI32
aI169
aI72
aI64
aI209
aI89
aI129
aI128
aI8
aI32
aI40
aI24
aI32
aI33
aI41
aI25
aI57
aI24
aI17
aI17
aI32
aI136
aI48
aI0
aI9
aI33
aI112
aI40
aI33
aI105
aI184
aI49
aI17
aI72
aI40
aI16
aI25
aI16
aI17
aI48
aI144
aI137
aI136
aI145
aI32
asS'WE'
p458
(lp459
I185
aI121
aI185
aI136
aI112
aI432
aI137
aI137
aI257
aI240
aI112
aI113
aI392
aI408
aI297
aI121
asS'JY'
p460
(lp461
I128
asS'WA'
p462
(lp463
I105
aI8
aI129
aI233
aI97
aI25
aI153
aI72
aI313
aI481
aI17
aI80
aI169
aI81
aI33
aI8
aI73
asS'JT'
p464
(lp465
I41
asS'JU'
p466
(lp467
I186
aI241
aI185
aI178
asS'WL'
p468
(lp469
I81
asS'WI'
p470
(lp471
I49
aI24
aI32
aI241
aI33
aI24
aI280
aI114
aI208
aI57
aI81
aI137
aI129
aI153
aI8
aI73
asS'WH'
p472
(lp473
I49
aI161
aI16
aI281
aI273
aI96
aI184
aI64
aI72
aI89
aI81
aI49
aI72
aI25
aI17
aI153
aI185
aI32
aI25
aI33
aI16
aI16
aI272
asS'JO'
p474
(lp475
I168
aI136
asS'WS'
p476
(lp477
I136
aI145
asS'WR'
p478
(lp479
I56
aI73
aI336
asS'JK'
p480
(lp481
I104
asS'JE'
p482
(lp483
I49
asS'JA'
p484
(lp485
I104
asS'10'
p486
(lp487
I65
aI24
asS'W\x08'
p488
(lp489
I304
asS'J\x08'
p490
(lp491
I785
asS'W '
p492
(lp493
I49
aI1
aI89
aI57
aI33
aI57
aI177
aI41
aI41
aI993
aI40
aI41
aI89
aI177
aI81
aI89
asS'\x10E'
p494
(lp495
I-1
asS'J '
p496
(lp497
I1529
asS'\t['
p498
(lp499
I624
asS'\tR'
p500
(lp501
I592
asS'\tI'
p502
(lp503
I416
asS'\tM'
p504
(lp505
I2856
asS'\tN'
p506
(lp507
I489
asS'\xbe '
p508
(lp509
I153
aI1152
aI120
asS'\tC'
p510
(lp511
I449
asS'\tE'
p512
(lp513
I7371
asS'\tD'
p514
(lp515
I640
asS'PR'
p516
(lp517
I81
aI33
aI17
aI296
aI64
aI121
aI121
aI48
aI144
aI145
aI81
aI9
aI16
aI153
aI128
aI40
aI41
aI129
aI9
aI64
aI49
aI25
aI208
aI9
aI137
aI33
asS'PS'
p518
(lp519
I40
aI145
aI81
aI48
aI33
aI41
aI297
aI33
asS'PP'
p520
(lp521
I89
aI64
aI88
aI89
asS'PT'
p522
(lp523
I57
aI105
aI48
aI208
aI176
asS'PU'
p524
(lp525
I208
aI209
aI144
aI169
asS'PY'
p526
(lp527
I208
aI577
aI441
aI289
asS'0 '
p528
(lp529
I169
aI184
aI185
asS'PA'
p530
(lp531
I89
aI113
aI137
aI16
aI49
aI8
aI65
aI88
aI56
aI464
asS'PE'
p532
(lp533
I185
aI32
aI17
aI25
aI201
aI81
aI72
aI225
aI162
aI65
aI33
aI8
aI80
aI81
aI112
aI57
aI208
aI160
aI152
aI113
aI385
asS'PJ'
p534
(lp535
I241
asS'PI'
p536
(lp537
I113
aI153
aI112
aI161
aI905
aI160
aI209
aI177
aI1001
asS'PO'
p538
(lp539
I209
aI169
aI145
aI161
aI113
aI243
aI144
aI233
aI120
aI129
aI113
aI104
aI129
aI120
aI185
aI129
asS'PL'
p540
(lp541
I119
aI120
aI97
aI112
aI240
aI192
aI113
aI192
aI193
aI128
asS'P '
p542
(lp543
I225
aI153
aI144
aI136
aI201
aI281
aI145
aI145
aI208
aI185
aI137
aI145
aI145
aI289
aI201
aI177
aI208
aI145
aI161
aI281
aI249
aI169
aI136
aI137
aI312
aI129
aI161
aI168
aI145
aI217
aI153
aI185
aI161
aI152
aI152
aI129
aI128
aI730
aI297
aI161
aI184
aI144
aI129
aI137
aI153
aI160
aI144
aI152
aI136
aI209
aI473
aI368
aI136
aI144
aI144
aI137
aI128
aI201
aI145
asS'P\x08'
p544
(lp545
I368
asS'6 '
p546
(lp547
I193
aI73
aI33
asS'C\x08'
p548
(lp549
I248
aI432
aI536
aI657
aI721
asS'C '
p550
(lp551
I9
asS' U'
p552
(lp553
I192
aI313
aI241
aI353
aI120
aI209
aI96
aI144
aI153
aI161
aI465
aI1665
aI177
aI440
asS'CK'
p554
(lp555
I721
aI24
aI16
aI288
aI1
aI177
aI185
aI9
aI129
aI168
aI159
aI1
asS'CI'
p556
(lp557
I32
aI9
aI8
aI73
aI201
aI873
aI17
aI273
aI16
aI16
aI73
aI17
aI89
aI33
aI121
aI305
aI593
aI39
aI72
aI26
asS'CH'
p558
(lp559
I9
aI176
aI121
aI96
aI121
aI145
aI65
aI8
aI105
aI137
aI16
aI137
aI32
aI137
aI56
aI9
aI8
aI161
aI137
aI121
aI33
aI9
aI353
aI9
aI8
aI121
aI161
aI129
aI1
aI41
aI161
aI8
aI41
aI16
aI32
aI9
aI48
aI184
aI16
asS'CO'
p560
(lp561
I16
aI225
aI32
aI17
aI17
aI49
aI416
aI152
aI25
aI121
aI121
aI241
aI113
aI193
aI185
aI40
aI168
aI168
aI386
aI8
aI17
aI33
aI25
aI161
aI152
aI17
aI89
aI8
aI81
aI17
aI57
aI40
aI9
aI8
aI65
asS'CN'
p562
(lp563
I72
aI40
aI24
asS'CL'
p564
(lp565
I17
aI616
aI57
aI41
aI9
aI49
aI120
aI177
aI1456
aI153
asS'CC'
p566
(lp567
I72
aI73
aI97
aI73
asS'CA'
p568
(lp569
I81
aI41
aI49
aI105
aI112
aI65
aI48
aI153
aI96
aI113
aI57
aI25
aI25
aI49
aI120
aI49
aI88
aI25
aI89
aI265
aI32
aI49
aI57
aI57
aI200
aI89
aI169
aI56
aI56
aI24
aI105
aI8
aI48
aI81
aI25
aI73
aI457
asS'CE'
p570
(lp571
I152
aI80
aI185
aI184
aI130
aI88
aI105
aI89
aI88
aI96
aI105
aI56
aI65
aI113
aI97
aI280
aI49
aI112
aI191
aI105
aI96
aI185
aI128
aI105
aI90
aI193
aI65
aI176
aI129
aI65
aI129
aI56
aI232
aI97
aI329
aI96
aI881
aI561
aI88
asS'CY'
p572
(lp573
I161
asS'CR'
p574
(lp575
I184
aI320
aI184
aI265
aI169
aI304
asS'CU'
p576
(lp577
I73
aI41
aI16
aI193
aI40
aI137
aI18
aI40
aI313
asS'CT'
p578
(lp579
I160
aI185
aI192
aI161
aI273
aI177
aI241
aI168
aI161
aI177
aI145
aI169
aI145
aI289
aI272
aI249
aI152
aI121
aI225
aI192
aI153
aI161
aI153
aI184
aI177
aI161
aI193
aI153
aI185
aI144
aI225
aI169
aI560
aI168
aI129
aI241
aI352
asS'\xdbS'
p580
(lp581
I89
asS'V\x08'
p582
(lp583
I681
asS'I\x10'
p584
(lp585
I472
asS'I\x08'
p586
(lp587
I305
aI873
aI568
aI448
aI1240
aI1816
aI353
aI336
aI1065
aI409
aI496
aI393
aI1224
aI384
aI392
aI601
asS'VA'
p588
(lp589
I88
aI72
aI88
aI88
aI32
asS'IZ'
p590
(lp591
I89
aI65
aI48
asS'VE'
p592
(lp593
I89
aI73
aI88
aI81
aI145
aI201
aI209
aI57
aI56
aI50
aI80
aI193
aI177
aI32
aI218
aI216
aI96
aI33
aI49
aI40
aI193
aI665
aI16
aI48
aI73
aI145
aI80
aI153
aI112
aI113
aI105
aI72
aI128
aI64
aI41
aI73
aI49
aI81
aI153
aI89
aI57
aI55
aI72
aI81
aI184
aI168
aI1009
asS'VI'
p594
(lp595
I80
aI9
aI201
aI241
aI40
aI17
aI73
aI57
aI105
aI192
aI33
aI32
aI241
aI16
aI233
aI9
aI49
aI137
aI121
aI153
aI25
aI97
aI57
aI145
aI57
aI33
asS'IS'
p596
(lp597
I25
aI41
aI65
aI121
aI32
aI57
aI1
aI97
aI57
aI9
aI16
aI17
aI9
aI80
aI89
aI200
aI56
aI16
aI17
aI73
aI72
aI88
aI0
aI1073
aI153
aI57
aI56
aI777
aI23
aI25
aI233
aI81
aI9
aI161
aI17
aI136
aI120
aI72
aI25
aI249
aI105
aI97
aI136
aI8
aI40
aI17
aI97
aI89
asS'IR'
p598
(lp599
I113
aI32
aI160
aI96
aI25
aI857
aI225
aI145
aI257
aI89
aI80
asS'IU'
p600
(lp601
I265
aI161
aI153
asS'IT'
p602
(lp603
I113
aI33
aI280
aI63
aI33
aI208
aI185
aI73
aI201
aI33
aI200
aI65
aI66
aI114
aI8
aI121
aI32
aI56
aI24
aI97
aI49
aI41
aI57
aI176
aI32
aI137
aI73
aI57
aI169
aI129
aI97
aI329
aI40
aI73
aI89
aI88
aI185
aI81
aI25
aI1
aI345
aI1
aI33
aI217
aI160
aI176
aI73
aI56
aI49
aI121
aI73
aI152
aI64
aI49
aI201
aI73
aI25
aI209
aI49
aI185
aI80
aI24
aI153
aI17
asS'IW'
p604
(lp605
I745
asS'IV'
p606
(lp607
I40
aI209
aI161
aI80
aI233
aI104
aI64
aI121
aI64
aI56
aI425
aI121
aI97
asS'II'
p608
(lp609
I609
aI120
asS'IK'
p610
(lp611
I129
aI121
asS'IM'
p612
(lp613
I104
aI105
aI112
aI144
aI113
aI297
aI121
aI113
aI104
aI104
aI104
aI208
aI121
aI113
aI128
aI128
aI121
aI137
aI137
aI120
aI176
aI137
aI105
aI153
aI193
aI113
aI136
aI153
aI120
aI136
aI120
aI241
aI168
asS'IL'
p614
(lp615
I208
aI145
aI160
aI137
aI136
aI153
aI145
aI176
aI144
aI152
aI249
aI145
aI128
aI161
aI153
aI176
aI145
aI160
asS'IO'
p616
(lp617
I120
aI137
aI121
aI136
aI144
aI121
aI137
aI112
aI121
aI121
aI129
aI121
aI57
aI129
aI113
aI49
aI128
aI137
aI129
aI585
aI137
aI137
aI113
aI137
aI161
aI152
aI72
asS'IN'
p618
(lp619
I191
aI168
aI193
aI121
aI458
aI97
aI129
aI192
aI192
aI95
aI169
aI128
aI113
aI120
aI129
aI113
aI121
aI209
aI105
aI177
aI168
aI105
aI152
aI96
aI113
aI160
aI80
aI161
aI127
aI193
aI184
aI185
aI232
aI160
aI89
aI113
aI89
aI113
aI105
aI89
aI240
aI208
aI105
aI81
aI97
aI105
aI113
aI273
aI113
aI104
aI89
aI248
aI105
aI97
aI89
aI97
aI168
aI153
aI201
aI193
aI113
aI137
aI105
aI193
aI177
aI113
aI96
aI121
aI97
aI96
aI105
aI169
aI127
aI160
aI104
aI97
aI176
aI96
aI120
aI97
aI169
aI97
aI121
aI96
aI137
aI121
aI177
aI105
aI96
aI105
aI137
aI184
aI129
aI169
aI121
aI105
aI201
aI145
aI193
aI113
aI193
aI113
aI153
aI128
aI104
aI153
aI81
aI97
aI80
aI105
aI97
aI81
aI137
aI177
aI105
aI121
aI154
aI112
aI201
aI144
aI113
aI113
aI128
aI113
aI176
aI169
aI105
aI128
aI137
aI120
aI176
aI97
aI121
aI80
aI209
aI96
aI177
aI96
aI113
aI97
aI105
aI153
aI160
aI432
aI112
aI97
aI96
aI96
aI97
aI192
aI121
aI97
aI121
aI128
aI97
aI169
aI193
aI111
aI120
aI176
aI89
aI88
aI121
asS'IA'
p620
(lp621
I561
aI65
aI72
aI561
aI57
aI57
aI89
aI57
aI144
aI105
aI88
aI65
aI24
aI81
aI49
aI48
aI41
asS'IC'
p622
(lp623
I72
aI81
aI176
aI217
aI73
aI96
aI41
aI73
aI89
aI73
aI97
aI17
aI193
aI57
aI9
aI201
aI785
aI89
aI81
aI41
aI72
aI145
aI169
aI17
aI89
aI24
aI89
aI9
asS'\xdb\x08'
p624
(lp625
I737
asS'IE'
p626
(lp627
I104
aI385
aI33
aI185
aI64
aI74
aI57
aI40
aI57
aI112
aI113
aI113
aI369
aI176
aI96
aI250
aI24
aI168
aI23
aI49
aI72
aI297
aI41
aI121
aI8
aI49
aI185
aI161
aI8
aI48
aI73
aI72
aI48
aI128
aI73
aI49
aI112
aI457
aI377
aI344
asS'ID'
p628
(lp629
I64
aI177
aI80
aI32
aI33
aI89
aI81
aI192
aI48
aI96
aI121
aI673
aI81
aI64
aI297
asS'IG'
p630
(lp631
I97
aI121
aI40
aI89
aI16
aI105
aI48
aI88
aI89
aI281
aI8
aI152
aI137
aI841
aI17
aI152
aI65
aI24
aI161
aI89
aI25
aI25
aI32
aI89
aI113
aI9
aI57
asS'IF'
p632
(lp633
I56
aI192
aI168
aI25
aI25
aI248
aI32
aI129
aI7
aI185
aI192
aI104
aI184
aI9
aI424
aI9
aI24
aI81
aI81
aI72
aI8
aI8
aI33
aI16
aI25
aI24
aI49
asS'BD'
p634
(lp635
I104
asS'BE'
p636
(lp637
I584
aI8
aI224
aI40
aI8
aI0
aI40
aI8
aI24
aI9
aI120
aI152
aI24
aI8
aI24
aI8
aI9
aI9
aI9
aI8
aI24
aI145
aI33
aI49
aI8
aI201
aI72
aI177
aI9
aI41
aI97
aI208
aI8
aI8
aI9
aI33
aI25
aI16
aI25
aI16
aI17
aI8
aI24
aI33
aI49
aI201
aI209
aI9
aI184
aI41
aI49
aI0
aI176
aI16
aI25
asS'BA'
p638
(lp639
I41
aI177
aI49
aI97
aI17
aI200
aI97
aI16
aI9
aI32
aI33
aI185
aI17
asS'BL'
p640
(lp641
I225
aI247
aI209
aI209
aI120
aI224
aI169
aI225
aI225
aI137
aI177
aI160
aI177
aI153
aI153
aI153
aI144
aI146
aI177
aI257
aI193
aI193
aI272
aI120
aI136
aI1888
asS'BO'
p642
(lp643
I121
aI145
aI121
aI152
aI113
aI121
aI145
aI177
aI144
aI145
aI128
aI145
aI113
asS'BI'
p644
(lp645
I88
aI97
aI192
aI137
aI106
asS'BJ'
p646
(lp647
I137
asS'O '
p648
(lp649
I136
aI145
aI105
aI128
aI129
aI128
aI129
aI120
aI136
aI128
aI209
aI105
aI120
aI745
aI120
aI104
aI145
aI113
aI128
aI289
aI153
aI136
aI160
aI169
aI1015
aI144
aI120
aI193
aI121
aI143
aI192
aI161
aI121
aI105
aI193
aI272
aI129
aI185
aI153
aI137
aI129
aI129
aI129
aI169
aI184
aI857
aI113
aI208
aI208
aI600
aI128
aI216
aI104
aI128
aI193
aI138
aI129
aI217
aI137
aI144
aI233
aI152
aI160
aI393
aI153
aI232
aI129
aI129
aI136
aI137
aI121
aI145
aI249
aI121
aI161
aI145
aI120
aI120
aI137
aI137
aI105
aI137
aI121
aI129
aI208
aI136
aI161
aI152
aI120
aI129
aI185
aI425
aI121
aI281
aI145
asS'BU'
p650
(lp651
I97
aI81
aI80
aI88
aI89
aI50
aI105
aI121
aI129
asS'\x08\x08'
p652
(lp653
I73
aI480
aI72
aI105
aI97
aI64
aI72
aI72
aI89
aI65
aI145
aI81
aI64
aI81
aI472
aI81
aI81
aI49
aI89
aI80
aI161
aI89
aI88
aI97
aI153
aI88
aI73
aI145
aI81
aI49
aI129
aI80
aI600
aI96
aI80
aI73
aI416
aI104
aI104
aI81
asS'BR'
p654
(lp655
I144
aI89
aI145
aI25
aI57
asS'BY'
p656
(lp657
I112
asS'O\x08'
p658
(lp659
I712
aI1633
aI1257
aI393
aI720
aI913
aI465
aI545
aI505
aI200
aI849
aI1057
asS'\x08 '
p660
(lp661
I73
aI809
aI281
asS'\x08Y'
p662
(lp663
I201
aI81
aI65
aI32
aI17
aI41
aI9
aI113
aI224
asS'\x08R'
p664
(lp665
I8
aI113
aI24
aI48
asS'\x08S'
p666
(lp667
I80
aI25
aI65
aI145
aI25
aI56
aI9
aI16
asS'\x08P'
p668
(lp669
I169
aI145
aI145
aI225
aI168
aI130
aI113
asS'B\x08'
p670
(lp671
I538
asS'\x08W'
p672
(lp673
I49
asS'\x08T'
p674
(lp675
I48
aI57
aI16
aI111
aI49
aI72
aI113
aI25
asS'\x08U'
p676
(lp677
I169
aI177
aI185
aI153
aI201
aI201
aI193
asS'\x08J'
p678
(lp679
I162
asS'\x08K'
p680
(lp681
I178
aI217
aI201
asS'\x08H'
p682
(lp683
I201
aI121
aI185
aI241
aI184
asS'\x08I'
p684
(lp685
I137
aI136
aI169
aI161
aI456
aI201
aI193
aI153
asS'\x08N'
p686
(lp687
I193
aI144
aI216
aI201
aI201
aI193
aI137
aI209
asS'\x08O'
p688
(lp689
I209
aI184
aI152
aI136
aI153
aI153
aI241
aI129
asS'\x08L'
p690
(lp691
I169
aI176
aI161
aI169
asS'\x08M'
p692
(lp693
I193
asS'\x08B'
p694
(lp695
I233
asS'\x08C'
p696
(lp697
I225
aI41
aI81
aI105
asS'\x08A'
p698
(lp699
I169
aI97
aI65
aI153
aI57
aI88
asS'\x08F'
p700
(lp701
I24
aI1122
asS'\x08G'
p702
(lp703
I112
asS'\x08D'
p704
(lp705
I49
asS'\x08E'
p706
(lp707
I129
aI104
asS'OO'
p708
(lp709
I73
aI105
aI97
aI81
aI169
aI88
aI104
aI97
aI105
aI104
aI88
aI81
aI80
aI97
aI73
aI184
aI80
aI97
aI89
aI88
aI96
aI169
aI177
aI89
aI177
aI113
aI96
aI121
aI80
aI177
aI88
aI89
aI97
aI89
aI89
aI97
aI192
aI105
aI97
aI113
aI97
aI328
aI88
aI88
aI81
aI81
aI81
aI89
aI89
aI81
aI89
aI97
aI88
aI105
aI97
aI113
aI80
aI96
aI80
aI129
aI72
aI88
asS'ON'
p710
(lp711
I113
aI97
aI824
aI112
aI88
aI88
aI105
aI96
aI97
aI185
aI121
aI89
aI105
aI809
aI105
aI97
aI96
aI96
aI137
aI136
aI113
aI113
aI145
aI97
aI136
aI105
aI105
aI105
aI121
aI104
aI121
aI112
aI88
aI80
aI88
aI129
aI137
aI96
aI272
aI105
aI1304
aI97
aI153
aI97
aI104
aI121
aI89
aI129
aI113
aI105
aI249
aI113
aI121
aI128
aI104
aI144
aI97
aI112
aI128
aI113
aI97
aI144
aI104
aI121
aI120
aI88
aI73
aI97
aI112
aI96
aI225
asS'OM'
p712
(lp713
I121
aI128
aI176
aI120
aI105
aI177
aI129
aI121
aI97
aI89
aI89
aI97
aI113
aI129
aI168
aI128
aI409
aI121
aI97
aI113
aI97
aI113
aI97
aI105
aI122
aI104
aI112
aI209
aI129
aI105
asS'OL'
p714
(lp715
I144
aI201
aI194
aI136
aI152
aI1449
aI201
aI121
aI130
aI169
aI137
aI153
aI137
aI121
aI209
asS'B '
p716
(lp717
I904
aI297
asS'OI'
p718
(lp719
I145
aI113
aI104
aI121
aI1736
aI177
aI281
aI113
aI169
aI112
aI129
aI9
asS'OG'
p720
(lp721
I128
asS'OF'
p722
(lp723
I176
aI168
aI177
aI152
aI16
aI216
aI8
aI25
aI97
aI193
aI177
aI48
aI9
aI160
aI41
aI17
aI152
aI769
aI17
aI217
aI73
aI177
aI112
aI26
aI8
aI8
aI24
aI105
aI192
aI8
aI81
aI280
aI185
aI42
aI72
aI65
aI136
asS'OE'
p724
(lp725
I73
aI65
asS'OD'
p726
(lp727
I121
aI81
aI121
aI105
aI392
aI16
aI41
aI113
aI97
aI112
aI48
aI48
aI17
aI184
aI9
aI40
aI186
aI25
aI16
aI169
aI177
aI33
aI160
aI113
aI112
aI24
aI81
aI177
aI25
aI9
aI137
aI16
aI25
aI9
aI95
aI57
aI41
aI40
aI24
aI8
aI16
aI16
aI161
aI65
aI25
aI41
aI9
aI65
aI73
aI129
aI89
aI25
aI129
asS'OC'
p728
(lp729
I73
aI129
aI320
aI128
aI159
aI73
aI305
aI73
aI73
aI41
aI24
asS'OB'
p730
(lp731
I121
aI153
aI121
aI169
aI160
aI137
aI112
aI136
aI176
asS'OA'
p732
(lp733
I41
aI201
aI162
asS'OY'
p734
(lp735
I223
aI168
asS'OW'
p736
(lp737
I9
aI576
aI201
aI8
aI200
aI209
aI65
aI65
aI17
aI129
aI33
aI1
aI16
aI201
aI25
aI33
aI49
aI8
aI48
aI97
aI56
asS'OV'
p738
(lp739
I80
aI8
aI25
aI201
aI153
aI17
aI128
aI73
aI128
aI113
asS'OU'
p740
(lp741
I154
aI137
aI137
aI145
aI129
aI161
aI177
aI120
aI129
aI114
aI193
aI121
aI433
aI111
aI121
aI128
aI145
aI248
aI121
aI137
aI129
aI120
aI121
aI122
aI129
aI113
aI120
aI129
aI136
aI113
aI1113
aI137
aI145
aI145
aI121
aI137
aI137
aI160
aI128
aI136
aI153
aI128
aI151
aI168
aI129
aI144
aI146
aI152
aI137
aI136
aI153
aI136
aI137
aI128
aI161
aI127
aI129
aI112
aI121
aI160
aI144
aI120
aI112
aI192
aI161
aI145
aI121
aI137
aI146
aI128
aI144
aI185
aI112
aI169
aI152
aI130
aI120
aI169
aI136
aI105
aI121
aI369
aI145
aI185
aI152
aI145
aI152
aI137
aI120
aI128
aI224
aI121
aI177
aI128
aI104
aI153
aI169
aI170
aI161
aI152
aI216
aI168
aI129
aI136
aI129
aI137
aI136
aI137
aI144
aI137
aI193
aI201
aI177
aI137
aI337
aI145
aI137
aI137
aI145
aI136
aI169
aI113
aI121
aI121
aI200
aI137
aI145
aI152
asS'OT'
p742
(lp743
I49
aI9
aI249
aI16
aI72
aI17
aI153
aI41
aI169
aI88
aI17
aI41
aI16
aI9
aI280
aI153
aI16
aI177
aI32
aI81
aI8
aI41
aI9
aI8
aI64
aI40
aI32
aI39
aI96
aI25
aI9
aI209
aI1
asS'OS'
p744
(lp745
I9
aI161
aI153
aI137
aI1
aI144
aI136
aI168
aI25
aI241
aI161
aI32
aI41
aI56
asS'OR'
p746
(lp747
I208
aI73
aI193
aI104
aI56
aI73
aI16
aI25
aI57
aI24
aI81
aI657
aI16
aI169
aI25
aI153
aI176
aI33
aI168
aI97
aI8
aI49
aI24
aI9
aI136
aI57
aI23
aI9
aI481
aI120
aI137
aI72
aI17
aI56
aI329
aI193
aI40
aI9
aI168
aI145
aI40
aI49
aI33
aI63
aI128
aI49
aI57
aI41
aI8
aI33
aI16
aI177
aI89
aI48
aI57
aI65
aI89
aI89
aI8
aI33
aI104
aI9
aI57
aI48
aI41
aI24
aI88
aI17
aI97
aI41
aI33
aI41
aI33
aI8
aI17
aI216
aI184
aI1
aI160
aI160
aI281
aI201
aI144
aI16
aI177
aI145
aI104
aI24
aI64
aI25
aI49
aI72
aI88
aI48
asS'OP'
p748
(lp749
I137
aI129
aI127
aI896
aI137
aI136
aI113
asS'HY'
p750
(lp751
I201
aI177
aI1736
aI248
aI112
aI104
aI112
aI840
asS'HR'
p752
(lp753
I50
aI80
aI80
aI161
asS'HT'
p754
(lp755
I151
aI87
aI49
aI176
aI89
aI440
aI33
aI81
aI73
aI153
aI224
aI152
aI201
aI49
aI105
aI97
aI120
aI105
aI81
aI113
aI73
aI72
asS'HU'
p756
(lp757
I96
aI201
aI561
asS'HJ'
p758
(lp759
I105
aI89
aI48
asS'HI'
p760
(lp761
I64
aI65
aI1426
aI48
aI89
aI113
aI185
aI72
aI81
aI105
aI121
aI128
aI121
aI177
aI80
aI97
aI184
aI89
aI137
aI113
aI169
asS'HO'
p762
(lp763
I208
aI168
aI128
aI105
aI121
aI241
aI121
aI105
aI201
aI105
aI89
aI200
aI209
aI130
aI104
aI113
aI985
aI185
aI113
aI145
aI119
aI105
aI112
aI121
aI97
aI120
aI201
aI145
aI105
aI161
aI144
aI120
aI128
aI121
aI177
aI144
aI145
aI152
aI137
aI120
aI113
asS'HA'
p764
(lp765
I40
aI8
aI24
aI128
aI17
aI185
aI113
aI106
aI9
aI105
aI8
aI40
aI113
aI80
aI32
aI185
aI25
aI65
aI33
aI33
aI24
aI16
aI105
aI17
aI113
aI73
aI41
aI9
aI129
aI113
aI69
aI33
aI113
aI113
aI41
aI192
aI40
aI41
aI113
aI144
aI41
aI9
aI121
aI48
aI57
aI41
asS'U '
p766
(lp767
I137
aI193
aI144
aI137
aI217
aI144
aI224
aI242
aI209
aI113
aI193
aI112
aI273
aI137
aI225
aI137
aI217
aI137
aI185
aI352
aI161
aI129
aI121
aI193
aI144
aI586
aI105
aI153
aI151
aI129
aI136
aI136
aI113
aI145
aI161
aI160
aI176
aI120
aI585
aI136
aI152
aI160
aI177
aI145
aI153
aI128
aI224
aI153
aI177
aI153
aI313
aI193
asS'HD'
p768
(lp769
I248
asS'HE'
p770
(lp771
I16
aI96
aI121
aI137
aI25
aI64
aI105
aI152
aI120
aI120
aI129
aI153
aI57
aI9
aI40
aI56
aI106
aI113
aI33
aI57
aI152
aI153
aI136
aI143
aI1081
aI167
aI121
aI105
aI80
aI9
aI17
aI56
aI49
aI17
aI137
aI8
aI25
aI145
aI56
aI8
aI154
aI113
aI33
aI145
aI201
aI113
aI137
aI151
aI89
aI56
aI120
aI113
aI24
aI128
aI97
aI49
aI152
aI74
aI176
aI49
aI87
aI137
aI113
aI33
aI417
aI154
aI40
aI56
aI152
aI82
aI160
aI25
aI129
aI32
aI41
aI177
aI41
aI241
aI161
aI25
aI65
aI360
aI136
aI441
aI41
aI96
aI153
aI152
aI49
aI168
aI65
aI153
aI26
aI41
aI145
aI209
aI50
aI40
aI8
aI40
aI16
aI168
aI41
aI129
aI136
aI113
aI160
aI144
aI120
aI153
aI41
aI56
aI32
asS'\x08V'
p772
(lp773
I25
aI377
aI161
aI8
asS'\x08\xbf'
p774
(lp775
I1009
asS'U\x08'
p776
(lp777
I1432
aI536
aI449
aI1225
aI392
asS'H\x08'
p778
(lp779
I705
aI497
asS'UT'
p780
(lp781
I17
aI33
aI81
aI144
aI16
aI161
aI32
aI16
aI33
aI73
aI33
aI41
aI209
aI97
aI42
aI41
aI33
aI8
aI105
aI16
aI145
aI16
aI64
aI81
aI57
aI24
aI57
aI49
aI17
aI105
aI57
aI104
aI57
aI216
aI48
aI57
aI16
aI128
aI33
asS'UP'
p782
(lp783
I192
aI178
aI225
aI145
aI241
aI240
aI265
aI145
aI160
aI185
aI224
aI201
aI120
asS'US'
p784
(lp785
I41
aI241
aI186
aI65
aI241
aI185
aI177
aI65
aI49
aI169
aI81
aI128
aI16
aI9
aI737
aI105
aI65
aI17
aI178
aI9
aI25
aI73
asS'5 '
p786
(lp787
I49
aI41
asS'UM'
p788
(lp789
I433
aI200
asS'UL'
p790
(lp791
I208
aI217
aI161
aI225
aI257
aI144
aI209
aI152
aI160
aI168
aI176
aI273
aI177
aI176
aI177
aI249
aI209
aI193
aI193
aI160
aI209
aI192
aI169
aI169
aI241
aI193
aI225
aI184
asS'UO'
p792
(lp793
I585
asS'UN'
p794
(lp795
I97
aI201
aI200
aI192
aI128
aI113
aI112
aI184
aI121
aI120
aI137
asS'UI'
p796
(lp797
I129
aI112
aI144
aI152
aI320
aI1681
aI144
aI121
aI121
aI121
aI153
aI137
aI112
asS'UD'
p798
(lp799
I80
aI65
aI128
asS'UG'
p800
(lp801
I40
aI64
aI82
aI41
aI50
aI64
aI137
aI113
asS'UF'
p802
(lp803
I72
asS'UA'
p804
(lp805
I56
aI89
aI25
aI33
aI48
aI73
aI41
aI89
asS'UC'
p806
(lp807
I73
aI49
aI65
aI121
aI49
aI56
aI32
aI97
aI137
aI24
aI97
aI89
aI72
aI49
aI57
aI56
aI56
aI96
aI161
aI56
aI161
aI41
aI169
aI113
aI65
aI41
aI89
aI41
aI56
aI73
aI64
asS'UB'
p808
(lp809
I89
aI113
asS'N\xbe'
p810
(lp811
I248
asS'\xbc '
p812
(lp813
I281
asS'NH'
p814
(lp815
I128
asS'NI'
p816
(lp817
I88
aI97
aI65
aI161
aI73
aI137
aI57
aI48
aI105
aI65
aI89
aI81
aI73
aI113
aI80
asS'NJ'
p818
(lp819
I183
aI81
asS'NK'
p820
(lp821
I105
aI160
asS'NL'
p822
(lp823
I129
aI136
asS'NM'
p824
(lp825
I297
aI177
aI161
aI169
asS'NO'
p826
(lp827
I81
aI233
aI96
aI96
aI73
aI97
aI113
aI129
aI129
aI104
aI105
aI153
aI177
aI80
aI112
aI112
aI121
aI321
aI104
aI128
aI128
aI96
aI88
asS'NA'
p828
(lp829
I169
aI41
aI49
aI185
aI65
aI312
aI192
aI72
aI63
aI40
aI9
aI24
aI41
aI81
aI81
asS'NC'
p830
(lp831
I48
aI32
aI114
aI88
aI24
aI8
aI104
aI49
aI177
aI201
aI17
aI65
aI304
aI48
aI57
aI136
aI57
aI49
aI184
aI97
aI56
asS'ND'
p832
(lp833
I49
aI33
aI17
aI121
aI9
aI200
aI145
aI33
aI33
aI23
aI33
aI121
aI305
aI25
aI49
aI216
aI49
aI121
aI41
aI41
aI24
aI40
aI16
aI81
aI49
aI40
aI56
aI73
aI9
aI49
aI49
aI65
aI49
aI9
aI32
aI209
aI136
aI145
aI42
aI40
aI193
aI25
aI153
aI41
aI65
aI10
aI49
aI9
aI48
aI49
aI49
aI24
aI33
aI33
aI33
aI497
aI64
aI49
aI25
aI17
aI41
aI49
aI41
aI8
aI18
aI24
aI17
aI25
aI65
aI81
aI144
aI137
aI136
aI41
aI145
asS'NE'
p834
(lp835
I138
aI168
aI16
aI159
aI57
aI89
aI24
aI25
aI192
aI104
aI64
aI17
aI97
aI16
aI8
aI33
aI73
aI33
aI24
aI64
aI16
aI24
aI25
aI16
aI25
aI8
aI145
aI33
aI49
aI105
aI168
asS'NF'
p836
(lp837
I49
aI24
asS'NG'
p838
(lp839
I191
aI168
aI193
aI17
aI73
aI192
aI169
aI41
aI9
aI209
aI168
aI152
aI160
aI161
aI8
aI193
aI232
aI160
aI24
aI648
aI49
aI33
aI192
aI17
aI8
aI72
aI8
aI8
aI32
aI26
aI33
aI56
aI49
aI9
aI56
aI153
aI201
aI193
aI34
aI1081
aI193
aI177
aI33
aI145
aI121
aI128
aI9
aI112
aI32
aI9
aI160
aI176
aI33
aI169
aI9
aI161
aI272
aI137
aI184
aI169
aI201
aI193
aI193
aI33
aI65
aI88
aI153
aI25
aI97
aI56
aI32
aI8
aI8
aI80
aI201
aI25
aI24
aI8
aI3512
aI169
aI25
aI88
aI17
aI49
aI176
aI65
aI7
aI209
aI8
aI8
aI49
aI48
aI160
aI25
aI17
aI192
aI169
aI25
aI104
aI176
aI8
aI57
asS'NX'
p840
(lp841
I145
aI129
aI105
aI89
asS'NY'
p842
(lp843
I137
aI129
aI105
aI136
aI128
asS'NR'
p844
(lp845
I193
asS'NS'
p846
(lp847
I104
aI192
aI40
aI8
aI1841
aI185
aI201
aI25
aI185
aI41
aI57
aI41
aI65
aI169
aI47
aI65
aI120
aI65
aI106
aI65
aI33
aI49
aI1368
aI40
aI144
aI1
aI105
aI65
aI9
aI48
asS'NT'
p848
(lp849
I56
aI40
aI113
aI17
aI80
aI9
aI415
aI304
aI73
aI24
aI57
aI184
aI8
aI1
aI32
aI728
aI487
aI34
aI129
aI73
aI18
aI72
aI168
aI65
aI17
aI136
aI80
aI25
aI144
aI129
aI177
aI465
aI96
aI40
aI177
aI33
aI48
aI57
aI32
aI73
aI1257
aI49
aI273
aI73
aI1089
aI841
aI49
asS'NU'
p850
(lp851
I105
aI130
aI97
aI89
aI145
aI105
aI369
aI161
asS'NV'
p852
(lp853
I121
aI113
aI185
aI153
aI129
asS'T\xbe'
p854
(lp855
I152
asS'N '
p856
(lp857
I208
aI121
aI112
aI233
aI121
aI201
aI106
aI168
aI176
aI113
aI208
aI112
aI145
aI105
aI208
aI121
aI113
aI105
aI112
aI104
aI168
aI106
aI145
aI105
aI89
aI1249
aI129
aI113
aI186
aI160
aI328
aI105
aI130
aI178
aI137
aI4206
aI121
aI121
aI185
aI160
aI217
aI128
aI105
aI128
aI104
aI1249
aI153
aI129
aI136
aI105
aI225
aI129
aI193
aI225
aI96
aI120
aI105
aI129
aI1033
aI161
aI121
aI96
aI129
aI128
aI129
aI113
aI1121
aI145
aI241
aI105
aI120
aI113
aI153
aI136
aI113
aI121
aI129
aI145
aI129
aI90
aI88
aI105
aI584
aI137
aI161
aI121
aI153
aI128
aI145
aI129
aI81
aI1449
aI225
aI120
aI152
aI113
aI152
aI129
aI129
aI121
aI185
aI112
aI137
aI113
aI129
aI137
aI81
aI104
aI160
aI145
asS'N\x08'
p858
(lp859
I576
aI928
aI608
aI513
asS'[E'
p860
(lp861
I11313
asS'\xbcE'
p862
(lp863
I89
aI185
asS'A\x08'
p864
(lp865
I1065
aI1120
aI872
aI392
aI521
aI393
aI1177
aI337
aI521
aI929
aI784
asS'I\xdb'
p866
(lp867
I129
asS'A '
p868
(lp869
I49
aI104
aI89
aI129
aI105
aI90
aI25
aI17
aI33
aI9
aI81
aI80
aI152
aI121
aI24
aI25
aI0
aI32
aI49
aI105
aI57
aI49
aI32
aI1
aI217
aI25
aI25
aI9
aI24
aI129
aI9
aI32
aI23
aI16
aI24
aI25
aI914
aI8
aI153
aI40
aI65
aI1536
aI97
aI65
aI121
aI25
aI16
asS'\rC'
p870
(lp871
I232
asS'TY'
p872
(lp873
I24
aI74
aI24
aI264
aI49
aI57
aI42
aI113
aI72
aI72
aI88
aI121
aI144
aI0
aI113
aI81
aI56
asS'TW'
p874
(lp875
I81
aI89
aI249
asS'TT'
p876
(lp877
I177
aI97
aI105
aI128
aI216
aI105
aI96
aI89
aI97
aI88
aI89
asS'TU'
p878
(lp879
I16
aI17
aI57
aI121
aI160
aI105
asS'TR'
p880
(lp881
I185
aI153
aI217
aI128
aI113
aI96
aI169
aI105
aI137
aI145
aI144
aI105
aI97
aI201
aI137
aI104
aI121
aI113
aI233
aI112
aI129
aI105
aI153
aI121
aI208
aI129
aI121
aI113
aI169
asS'TS'
p882
(lp883
I160
aI80
aI129
aI105
aI104
aI90
aI120
aI137
aI96
aI113
aI152
aI72
aI1601
aI113
aI145
aI281
aI112
aI113
aI120
aI129
aI121
aI97
aI112
aI152
aI233
aI153
aI136
aI120
aI128
aI193
asS'40'
p884
(lp885
I257
asS'TN'
p886
(lp887
I127
asS'TO'
p888
(lp889
I48
aI24
aI17
aI297
aI152
aI273
aI9
aI121
aI9
aI761
aI168
aI993
aI17
aI200
aI177
aI25
aI15
aI65
aI137
aI32
aI232
aI241
aI49
aI25
aI129
aI144
aI9
aI185
aI41
aI8
aI17
aI136
aI1217
aI136
aI8
aI289
aI24
aI233
aI129
aI136
aI113
aI824
aI169
aI49
aI72
aI33
aI25
aI8
aI9
aI25
aI57
aI24
aI48
aI9
aI136
aI168
aI25
aI25
aI49
aI137
aI185
aI16
aI25
aI8
aI8
aI65
aI169
aI25
aI329
aI121
aI153
aI160
aI201
aI25
aI176
aI24
aI137
aI56
aI225
aI33
aI33
aI33
aI56
aI208
asS'TL'
p890
(lp891
I169
aI48
aI112
aI233
asS'TM'
p892
(lp893
I105
aI161
asS'TH'
p894
(lp895
I16
aI32
aI104
aI9
aI17
aI25
aI33
aI153
aI136
aI41
aI184
aI16
aI24
aI129
aI40
aI129
aI41
aI120
aI200
aI128
aI16
aI33
aI240
aI121
aI25
aI169
aI25
aI185
aI18
aI824
aI25
aI80
aI95
aI34
aI8
aI8
aI113
aI105
aI137
aI369
aI408
aI40
aI34
aI80
aI120
aI97
aI48
aI25
aI16
aI97
aI177
aI33
aI200
aI24
aI120
aI9
aI201
aI136
aI217
aI105
aI41
aI8
aI25
aI104
aI105
aI137
aI97
aI129
aI401
aI338
aI224
aI216
aI16
aI193
aI130
aI17
aI120
aI49
aI33
aI32
aI121
aI9
aI272
aI177
aI40
aI185
aI161
aI433
aI25
aI128
aI96
aI136
aI153
aI97
aI8
aI169
aI16
aI33
aI8
aI8
aI113
aI8
aI92
aI385
aI121
aI8
aI32
aI152
aI177
aI145
aI209
aI17
aI8
aI112
aI185
aI105
aI40
aI153
aI185
aI232
asS'TI'
p896
(lp897
I185
aI281
aI8
aI16
aI177
aI9
aI217
aI50
aI280
aI208
aI104
aI185
aI161
aI153
aI665
aI192
aI56
aI121
aI25
aI200
aI17
aI25
aI32
aI487
aI73
aI114
aI8
aI16
aI81
aI193
aI1097
aI33
aI17
aI249
aI128
aI161
aI169
aI169
aI8
aI9
aI457
aI112
aI57
aI129
aI145
aI25
aI9
aI272
aI208
aI128
aI120
aI313
aI41
aI32
aI249
aI193
aI105
aI25
aI49
aI41
aI89
aI8
aI345
aI25
aI9
aI201
aI225
aI160
aI16
aI208
aI96
aI25
aI40
aI79
aI184
aI32
aI9
aI41
aI144
aI49
aI9
aI8
aI305
aI193
aI9
aI97
aI9
aI721
aI487
aI16
aI104
aI249
aI209
aI9
aI49
asS'TF'
p898
(lp899
I168
asS'TE'
p900
(lp901
I32
aI16
aI32
aI281
aI120
aI129
aI368
aI17
aI257
aI73
aI208
aI209
aI57
aI154
aI176
aI129
aI98
aI152
aI9
aI144
aI128
aI121
aI217
aI9
aI8
aI201
aI136
aI185
aI50
aI49
aI216
aI185
aI97
aI49
aI24
aI184
aI409
aI128
aI73
aI168
aI17
aI249
aI81
aI217
aI193
aI57
aI136
aI49
asS'4 '
p902
(lp903
I233
aI33
aI41
asS'TA'
p904
(lp905
I81
aI161
aI81
aI192
aI33
aI304
aI57
aI119
aI8
aI113
aI161
aI8
aI384
aI129
aI128
aI65
aI224
aI73
aI16
aI32
aI64
aI88
aI129
aI184
aI128
aI48
aI49
aI89
aI111
aI33
aI114
aI65
aI145
aI25
aI88
aI81
aI9
aI40
aI7
aI9
asS'AC'
p906
(lp907
I88
aI160
aI97
aI80
aI65
aI40
aI113
aI177
aI113
aI64
aI65
aI168
aI121
aI104
aI65
aI96
asS'AB'
p908
(lp909
I16
aI24
aI161
aI192
aI32
aI106
aI73
aI33
aI137
aI40
aI25
aI24
aI25
aI56
aI153
aI81
aI177
aI41
aI57
aI408
aI145
aI33
aI48
aI73
aI8
aI17
aI64
asS'AD'
p910
(lp911
I105
aI8
aI24
aI89
aI144
aI32
aI73
aI56
aI121
aI65
aI481
aI0
aI81
aI113
aI105
aI113
aI65
aI97
aI104
aI41
asS'AG'
p912
(lp913
I113
aI73
aI113
aI200
aI33
aI49
aI257
aI217
asS'AF'
p914
(lp915
I40
aI89
aI65
aI72
aI80
aI73
aI58
aI1096
aI97
asS'AI'
p916
(lp917
I57
aI169
aI177
aI65
aI40
aI17
aI16
aI32
aI9
aI201
aI24
aI73
aI33
aI184
aI105
aI128
aI65
aI321
aI97
aI9
aI9
asS'AH'
p918
(lp919
I848
aI105
asS'AK'
p920
(lp921
I40
aI73
aI41
aI376
aI80
aI64
aI113
aI56
aI49
aI8
aI17
aI89
aI9
aI33
aI80
aI65
aI0
aI49
aI81
aI9
aI33
aI256
aI25
aI33
aI16
aI200
aI33
asS'AM'
p922
(lp923
I97
aI8
aI65
aI16
aI193
aI322
aI33
aI73
aI97
aI88
aI18
aI9
asS'AL'
p924
(lp925
I56
aI25
aI1
aI40
aI88
aI81
aI9
aI89
aI17
aI9
aI1
aI49
aI88
aI24
aI121
aI41
aI9
aI80
aI49
aI40
aI9
aI81
aI65
aI33
aI33
aI41
aI120
aI121
aI72
aI41
aI25
aI89
aI95
aI104
aI160
aI39
aI33
aI64
aI24
aI9
aI8
aI49
aI8
aI40
aI72
aI40
aI8
aI50
aI113
aI65
aI72
aI162
aI57
aI441
aI65
aI25
aI9
aI16
aI9
aI8
aI56
aI41
aI33
aI81
aI16
aI32
aI49
aI512
asS'AO'
p926
(lp927
I49
asS'AN'
p928
(lp929
I24
aI16
aI24
aI129
aI25
aI9
aI9
aI33
aI9
aI9
aI112
aI209
aI16
aI128
aI17
aI105
aI24
aI105
aI88
aI1
aI104
aI112
aI72
aI65
aI9
aI17
aI56
aI48
aI8
aI119
aI8
aI505
aI377
aI96
aI17
aI113
aI80
aI129
aI57
aI128
aI24
aI80
aI24
aI33
aI41
aI32
aI217
aI793
aI32
aI17
aI40
aI72
aI16
aI8
aI225
aI105
aI49
aI8
aI120
aI64
aI24
aI49
aI1
aI49
aI17
aI232
aI25
aI127
aI65
aI17
aI9
aI49
aI137
aI33
aI121
aI64
aI120
aI8
aI17
aI152
aI113
aI417
aI57
aI561
aI88
aI33
aI8
aI49
aI49
aI233
aI25
aI16
aI81
aI25
aI17
aI25
aI16
aI8
aI153
aI24
aI105
aI129
aI24
aI25
aI121
aI41
aI16
aI2145
aI0
aI33
aI49
aI105
aI353
aI17
aI48
aI73
aI41
aI4353
aI81
aI137
aI505
aI9
aI137
aI9
aI73
asS'AP'
p930
(lp931
I105
aI273
asS'AS'
p932
(lp933
I89
aI72
aI48
aI82
aI88
aI41
aI137
aI72
aI128
aI105
aI137
aI56
aI113
aI160
aI105
aI98
aI89
aI97
aI9
aI64
aI8
aI88
aI97
aI56
aI120
aI127
aI120
aI57
aI81
aI64
aI88
aI57
aI41
aI192
aI689
aI49
aI72
aI177
aI121
asS'AR'
p934
(lp935
I128
aI119
aI696
aI256
aI81
aI88
aI105
aI81
aI49
aI112
aI80
aI217
aI217
aI16
aI89
aI112
aI177
aI121
aI217
aI64
aI210
aI201
aI193
aI168
aI89
aI97
aI177
aI184
aI986
aI88
aI74
aI89
aI200
aI89
aI154
aI65
aI64
aI72
aI97
aI128
aI594
aI88
aI186
aI168
aI89
aI57
aI168
aI225
aI104
asS'AU'
p936
(lp937
I64
aI49
aI17
aI112
aI89
aI40
asS'AT'
p938
(lp939
I185
aI89
aI105
aI105
aI129
aI161
aI241
aI57
aI105
aI129
aI232
aI121
aI113
aI185
aI329
aI161
aI121
aI89
aI112
aI112
aI192
aI112
aI137
aI105
aI1
aI161
aI193
aI97
aI113
aI113
aI440
aI153
aI111
aI121
aI169
aI129
aI113
aI153
aI176
aI689
aI169
aI209
aI64
aI97
aI193
aI106
aI129
aI97
aI137
aI161
aI105
aI169
aI136
aI73
aI120
aI105
aI105
aI113
aI113
aI25
aI217
aI336
aI129
aI120
aI185
aI112
aI201
aI113
aI69
aI106
aI120
aI41
aI113
aI185
aI65
aI121
aI129
aI129
aI105
aI129
aI8
aI144
aI177
aI193
aI200
aI128
aI121
aI105
aI121
aI193
aI113
aI104
aI105
aI137
aI89
aI249
aI194
aI185
aI129
aI593
aI177
aI135
asS'AW'
p940
(lp941
I233
aI169
aI41
aI241
aI209
asS'AV'
p942
(lp943
I809
aI65
aI73
aI73
aI41
aI89
aI72
aI89
aI57
aI81
aI64
aI81
aI184
aI104
aI97
aI72
aI89
asS'AY'
p944
(lp945
I408
aI161
aI25
aI153
aI47
aI41
aI25
aI89
aI41
aI48
aI105
aI57
aI64
aI296
aI153
aI137
aI81
aI104
asS'AX'
p946
(lp947
I345
aI152
asS'T '
p948
(lp949
I65
aI97
aI81
aI33
aI129
aI201
aI241
aI25
aI1800
aI17
aI49
aI321
aI49
aI1712
aI49
aI241
aI112
aI170
aI112
aI161
aI121
aI89
aI1210
aI113
aI225
aI40
aI745
aI208
aI8
aI40
aI41
aI697
aI1
aI9
aI32
aI17
aI329
aI41
aI8
aI25
aI57
aI1929
aI49
aI49
aI81
aI41
aI25
aI224
aI1
aI649
aI457
aI33
aI177
aI9
aI25
aI120
aI496
aI113
aI641
aI17
aI33
aI64
aI33
aI137
aI9
aI41
aI33
aI64
aI72
aI121
aI33
aI73
aI97
aI65
aI33
aI120
aI105
aI40
aI34
aI88
aI65
aI8
aI25
aI193
aI9
aI72
aI1
aI1
aI80
aI33
aI41
aI5114
aI73
aI89
aI73
aI25
aI17
aI129
aI41
aI73
aI136
aI1368
aI65
aI81
aI33
aI74
aI16
aI137
aI24
aI33
aI40
aI49
aI192
aI6672
aI1729
aI65
aI96
aI49
aI208
aI24
aI352
aI24
aI33
aI41
aI152
aI201
aI41
aI17
aI24
aI49
aI55
aI88
aI24
aI48
aI41
aI57
aI25
aI17
aI9
aI25
aI33
aI65
aI177
aI25
aI24
aI56
aI57
aI128
aI57
aI80
aI184
aI48
aI1
aI89
aI72
aI33
aI64
aI0
aI81
aI385
aI65
aI33
aI49
aI57
aI56
aI33
aI41
aI104
aI25
aI9
aI17
aI33
aI33
aI1
aI33
aI48
aI224
aI113
aI57
aI89
aI33
aI41
aI57
aI40
aI49
aI8
aI41
aI208
aI194
aI121
aI3049
aI64
aI33
aI89
aI40
aI129
aI9
aI120
aI24
aI90
aI178
aI40
aI49
aI177
aI113
aI25
aI688
asS'T\x08'
p950
(lp951
I1025
aI976
aI417
aI449
aI456
aI473
aI465
aI305
aI897
aI784
aI439
as.