ccollections
defaultdict
p0
(c__builtin__
list
p1
tp2
Rp3
S'L\xbe'
p4
(lp5
I1130
asS'M\xbc'
p6
(lp7
I287
asS'M\xbb'
p8
(lp9
I339
asS'G\x08'
p10
(lp11
I315
aI234
aI398
asS' B'
p12
(lp13
I542
aI597
aI125
aI188
aI238
aI71
aI319
aI139
aI123
aI406
aI142
aI162
aI318
aI206
aI190
aI308
aI91
aI88
aI156
aI128
aI104
aI202
aI223
aI225
aI196
aI228
aI647
aI101
aI117
aI528
aI141
aI170
aI95
asS' C'
p14
(lp15
I75
aI202
aI83
aI1654
aI168
aI135
aI76
aI657
aI1603
aI108
aI232
aI37
aI357
aI434
aI66
aI26
aI266
aI901
aI158
aI107
aI239
aI51
aI29
aI122
aI153
aI243
aI112
aI488
aI288
aI1021
aI187
aI146
aI73
aI147
aI129
aI96
aI105
aI416
aI693
aI123
aI273
aI240
aI170
asS' A'
p16
(lp17
I293
aI145
aI67
aI48
aI299
aI560
aI169
aI135
aI64
aI534
aI389
aI9
aI310
aI241
aI374
aI280
aI47
aI118
aI74
aI409
aI239
aI346
aI141
aI451
aI55
aI103
aI116
aI173
aI1641
aI173
aI68
aI146
aI156
aI220
aI112
aI88
aI37
aI38
aI91
aI91
aI69
aI245
aI116
aI1731
aI982
aI108
aI788
aI37
aI707
aI1368
aI39
aI34
aI36
aI486
aI48
aI72
aI70
aI114
aI51
aI128
aI117
aI42
aI235
aI73
aI129
aI25
aI590
aI115
aI93
aI589
aI60
aI207
aI8
aI821
aI226
aI64
aI190
aI48
aI242
aI1100
aI261
aI192
aI78
aI120
aI91
aI292
aI480
asS' F'
p18
(lp19
I235
aI228
aI238
aI137
aI138
aI362
aI1062
aI403
aI117
aI97
aI201
aI439
aI137
aI118
aI134
aI521
aI194
aI277
aI464
aI76
aI51
aI44
aI2648
aI211
aI161
aI52
aI55
aI529
aI132
aI113
aI361
aI128
aI106
aI166
aI344
aI166
aI1472
aI233
aI164
aI166
aI115
aI610
aI67
aI382
aI55
aI225
aI232
aI4452
aI92
aI834
aI165
aI42
aI24
aI86
aI116
aI33
aI496
aI54
aI41
aI165
aI170
aI304
aI194
aI178
aI726
aI190
aI35
aI43
aI130
aI278
aI81
aI126
aI145
aI359
aI46
aI768
aI105
aI219
aI647
asS' G'
p20
(lp21
I129
aI393
aI136
aI370
aI234
aI168
aI290
aI505
aI168
aI253
aI140
aI162
aI467
aI234
aI162
aI120
aI156
aI426
aI95
aI302
asS' D'
p22
(lp23
I307
aI490
aI832
aI61
aI376
aI357
aI290
aI244
aI95
aI90
aI66
aI997
aI529
aI153
aI68
aI206
aI108
aI151
aI146
aI243
aI151
aI440
aI31
aI105
aI132
aI18
aI226
aI78
aI56
aI161
aI951
aI370
aI524
aI253
aI174
aI426
aI298
aI93
asS' E'
p24
(lp25
I289
aI357
aI180
aI78
aI54
aI57
aI40
aI490
aI528
aI258
aI117
aI617
aI312
aI99
aI86
aI713
aI88
aI52
aI127
aI169
aI166
aI40
aI281
aI38
aI252
aI101
aI606
aI181
aI10
aI133
aI124
aI120
aI678
aI48
aI223
aI21
aI60
aI240
aI573
aI166
aI13
aI404
aI164
aI194
asS' J'
p26
(lp27
I1597
aI90
aI1591
asS' K'
p28
(lp29
I262
aI774
aI436
aI157
aI164
aI913
aI171
asS' H'
p30
(lp31
I625
aI190
aI790
aI179
aI196
aI183
aI219
aI513
aI116
aI413
aI339
aI71
aI918
aI361
aI459
aI99
aI196
aI993
aI245
aI721
aI147
aI116
aI362
aI101
aI666
aI154
aI100
aI205
aI196
aI58
aI293
aI114
aI123
aI107
aI232
aI514
aI81
aI103
aI331
asS' I'
p32
(lp33
I177
aI120
aI283
aI890
aI143
aI181
aI66
aI97
aI436
aI585
aI112
aI366
aI102
aI334
aI159
aI115
aI301
aI133
aI126
aI356
aI109
aI143
aI111
aI236
aI103
aI536
aI157
aI114
aI273
aI71
aI256
aI93
aI441
aI336
aI90
aI136
aI101
aI96
aI92
aI133
aI58
aI216
aI91
aI173
aI119
aI161
aI245
aI1422
aI104
aI171
aI265
aI508
aI128
aI321
aI242
asS' N'
p34
(lp35
I167
aI234
aI120
aI2736
aI191
aI95
aI323
aI137
aI143
aI278
aI519
aI379
aI146
aI191
aI241
aI381
aI130
aI70
aI467
aI72
aI200
asS' O'
p36
(lp37
I279
aI185
aI203
aI209
aI108
aI1440
aI118
aI162
aI98
aI150
aI199
aI161
aI142
aI86
aI184
aI85
aI94
aI123
aI83
aI251
aI422
aI106
aI143
aI158
aI133
aI69
aI155
aI74
aI527
aI118
aI207
aI698
aI138
aI158
aI478
aI105
aI239
aI356
aI586
aI133
aI174
aI156
aI195
aI95
aI97
aI118
aI354
aI325
aI351
aI95
aI98
aI103
aI175
aI611
aI222
aI145
aI63
aI130
aI659
aI442
aI789
aI257
aI105
aI206
aI187
aI179
aI287
aI1145
aI1202
aI233
aI127
aI52
aI265
aI161
aI584
asS' L'
p38
(lp39
I209
aI282
aI185
aI448
aI156
aI191
aI230
aI159
aI109
aI175
aI208
aI267
aI757
aI215
aI156
aI366
aI107
aI151
asS' M'
p40
(lp41
I185
aI96
aI110
aI216
aI219
aI655
aI210
aI187
aI116
aI95
aI248
aI140
aI338
aI119
aI221
aI182
aI316
aI93
aI180
aI124
aI118
aI421
aI195
aI2087
aI548
aI218
aI73
aI178
aI105
aI127
aI642
aI113
aI300
aI124
aI121
aI119
aI212
aI125
aI459
aI195
aI420
aI1791
asS' R'
p42
(lp43
I146
aI815
aI207
aI128
aI370
aI168
aI404
aI699
aI31
aI448
aI28
aI45
aI827
aI300
aI102
aI132
aI222
aI285
aI66
aI122
aI149
aI105
aI93
aI164
aI74
asS' S'
p44
(lp45
I137
aI57
aI89
aI289
aI251
aI68
aI243
aI358
aI714
aI246
aI120
aI52
aI91
aI68
aI293
aI61
aI107
aI118
aI341
aI286
aI49
aI191
aI811
aI127
aI85
aI99
aI109
aI403
aI2545
aI1059
aI33
aI40
aI210
aI69
aI434
aI345
aI201
aI198
aI517
aI95
aI275
aI81
aI100
aI91
aI497
aI120
aI430
aI132
aI155
aI304
aI1188
aI289
aI80
aI357
aI79
aI65
aI543
aI355
aI104
aI757
aI272
aI124
aI255
aI560
aI123
asS' P'
p46
(lp47
I150
aI330
aI268
aI404
aI256
aI656
aI161
aI220
aI199
aI197
aI138
aI227
aI184
aI121
aI379
aI372
aI220
aI111
aI350
aI130
aI303
aI709
aI183
aI124
aI177
aI119
aI220
aI134
aI278
aI619
aI188
aI211
aI397
aI487
aI165
aI149
aI203
aI225
asS' V'
p48
(lp49
I256
aI704
aI303
aI431
aI200
aI635
aI188
aI106
aI130
aI424
aI188
aI121
asS' W'
p50
(lp51
I169
aI102
aI1557
aI472
aI179
aI65
aI216
aI631
aI101
aI75
aI967
aI437
aI516
aI48
aI36
aI138
aI236
aI93
aI1261
aI273
aI592
aI13
aI123
aI132
aI114
aI123
aI640
aI165
aI216
aI111
aI114
aI426
aI210
aI135
aI671
aI96
aI86
asS' T'
p52
(lp53
I313
aI139
aI104
aI242
aI170
aI126
aI130
aI252
aI265
aI1931
aI878
aI409
aI122
aI126
aI92
aI571
aI131
aI68
aI389
aI70
aI194
aI128
aI465
aI118
aI185
aI109
aI132
aI878
aI262
aI114
aI321
aI159
aI119
aI190
aI266
aI304
aI394
aI103
aI139
aI107
aI132
aI648
aI45
aI102
aI180
aI120
aI89
aI110
aI140
aI196
aI160
aI131
aI107
aI823
aI64
aI58
aI133
aI275
aI92
aI108
aI187
aI104
aI120
aI167
aI186
aI285
aI539
aI521
aI962
aI134
aI839
aI121
aI480
aI219
aI168
aI490
aI117
aI239
aI157
aI325
aI159
aI250
aI74
aI136
aI144
aI767
aI657
aI146
aI125
aI57
aI87
aI155
aI399
aI136
aI258
aI128
aI72
aI143
aI157
aI78
asS'G '
p54
(lp55
I25
aI18
aI13
aI23
aI41
aI21
aI52
aI9
aI85
aI31
aI108
aI71
aI71
aI44
aI42
aI229
aI42
aI32
aI57
aI139
aI32
aI36
aI16
aI121
aI10
aI9
aI71
aI52
aI1129
aI24
aI12
aI134
aI39
aI72
aI12
aI14
aI8
aI9
aI17
aI29
aI28
aI546
aI86
asS' Y'
p56
(lp57
I227
aI556
aI222
aI425
aI241
aI392
aI274
aI152
aI383
aI116
aI155
aI105
aI172
aI2150
aI138
aI641
aI280
aI140
aI88
aI144
aI434
aI393
aI126
aI337
aI277
aI203
aI513
aI189
aI229
aI156
aI113
aI138
aI521
aI69
aI418
aI131
aI159
aI278
aI224
aI230
aI440
aI180
aI88
aI633
aI320
aI184
aI343
asS'GW'
p58
(lp59
I82
asS'GU'
p60
(lp61
I125
aI166
aI114
aI162
aI184
aI126
aI128
asS'GT'
p62
(lp63
I660
asS'GS'
p64
(lp65
I87
aI93
aI11
aI19
aI14
asS'GR'
p66
(lp67
I69
aI281
aI370
aI234
aI9
aI19
aI9
aI172
aI20
asS'YM'
p68
(lp69
I266
asS' 2'
p70
(lp71
I258
aI712
asS' 3'
p72
(lp73
I361
aI436
aI476
asS'GE'
p74
(lp75
I11
aI38
aI21
aI25
aI173
aI9
aI19
aI153
aI417
aI9
aI82
asS' 1'
p76
(lp77
I207
aI544
asS' 6'
p78
(lp79
I441
asS' 4'
p80
(lp81
I586
aI482
asS'GO'
p82
(lp83
I139
aI168
aI137
aI169
aI128
aI141
asS'GN'
p84
(lp85
I211
asS'GM'
p86
(lp87
I313
asS'GL'
p88
(lp89
I159
aI201
asS'GI'
p90
(lp91
I498
aI152
aI127
aI129
asS'GH'
p92
(lp93
I90
aI111
aI87
aI99
aI95
aI89
aI93
aI77
aI96
aI89
aI83
aI95
aI96
aI95
aI89
asS'3\xbd'
p94
(lp95
I110
asS' \x08'
p96
(lp97
I856
aI647
aI270
aI341
aI239
aI251
aI536
aI343
aI333
aI250
aI320
aI270
aI323
aI438
aI562
aI256
asS' \x10'
p98
(lp99
I167
aI156
aI1232
aI208
aI269
aI113
aI90
aI97
aI139
aI635
asS'WT'
p100
(lp101
I16
aI326
asS'VO'
p102
(lp103
I147
asS'\xbf\x08'
p104
(lp105
I639
asS'\xbd5'
p106
(lp107
I514
asS'M '
p108
(lp109
I270
aI276
aI17
aI35
aI46
aI64
aI531
aI42
aI46
aI254
aI30
aI610
aI41
aI14
aI42
aI62
asS'\xbd4'
p110
(lp111
I153
asS'\xbd1'
p112
(lp113
I116
asS'Z\x10'
p114
(lp115
I319
asS'SK'
p116
(lp117
I31
aI345
aI16
aI22
aI10
asS'M\x08'
p118
(lp119
I246
aI223
asS'R\xbc'
p120
(lp121
I1688
asS'\xbf\xbe'
p122
(lp123
I371
asS'ZE'
p124
(lp125
I125
aI108
aI121
aI338
asS'Y\xbe'
p126
(lp127
I769
aI1138
asS'R\xbb'
p128
(lp129
I410
asS' \xbc'
p130
(lp131
I665
asS'ME'
p132
(lp133
I26
aI9
aI219
aI93
aI45
aI221
aI191
aI11
aI94
aI26
aI32
aI9
aI32
aI182
aI316
aI179
aI521
aI2087
aI218
aI178
aI136
aI79
aI166
aI195
aI157
asS'MA'
p134
(lp135
I10
aI72
aI120
aI248
aI287
aI37
aI186
aI121
aI10
aI27
aI125
aI10
aI38
aI36
aI30
aI106
aI31
asS'MM'
p136
(lp137
I89
aI85
aI91
asS'MO'
p138
(lp139
I114
aI110
aI144
aI109
aI165
aI112
aI204
aI205
aI185
asS'30'
p140
(lp141
I11
asS'MI'
p142
(lp143
I111
aI122
aI169
aI160
aI150
aI146
aI117
aI150
aI113
aI115
asS'MU'
p144
(lp145
I143
aI101
aI137
aI136
aI121
asS'MP'
p146
(lp147
I121
aI113
aI229
asS'MS'
p148
(lp149
I121
aI124
asS'3 '
p150
(lp151
I12
asS'FR'
p152
(lp153
I105
aI127
aI190
aI105
aI118
aI163
aI92
aI379
aI177
asS'FT'
p154
(lp155
I222
aI176
aI90
aI120
asS'FU'
p156
(lp157
I113
asS'FY'
p158
(lp159
I9
aI199
aI50
asS'FA'
p160
(lp161
I181
aI217
aI135
aI278
aI257
aI212
aI136
aI129
aI146
aI449
aI444
aI137
aI154
aI211
aI252
asS'FD'
p162
(lp163
I121
asS'FE'
p164
(lp165
I268
aI104
aI108
aI102
aI93
aI347
aI278
asS'FF'
p166
(lp167
I86
aI87
asS'FG'
p168
(lp169
I132
aI159
asS'FI'
p170
(lp171
I303
aI97
aI116
aI94
aI15
aI178
aI29
asS'S '
p172
(lp173
I37
aI86
aI94
aI21
aI532
aI9
aI144
aI21
aI36
aI709
aI41
aI67
aI54
aI1141
aI10
aI79
aI175
aI182
aI167
aI53
aI123
aI87
aI825
aI93
aI9
aI299
aI37
aI26
aI98
aI40
aI18
aI67
aI295
aI306
aI60
aI493
aI58
aI156
aI333
aI82
aI94
aI32
aI17
aI4231
aI45
aI220
aI31
aI12
aI47
aI34
aI14
aI21
aI49
aI57
aI85
aI21
aI14
aI24
aI142
aI172
aI98
aI63
aI72
aI49
aI158
aI15
aI55
aI8
aI575
aI9
aI28
aI42
aI42
aI98
aI24
aI101
aI393
aI194
aI29
aI85
aI44
aI369
aI27
aI1384
aI473
aI88
aI87
aI370
aI128
aI1248
aI19
aI169
aI46
aI402
aI9
aI52
aI325
aI349
aI146
aI29
aI206
aI50
aI9
aI47
aI68
aI23
aI28
aI414
aI30
aI52
aI399
aI58
aI9
aI24
aI272
aI68
aI23
aI104
aI97
aI50
aI9
asS'FL'
p174
(lp175
I133
asS'FO'
p176
(lp177
I81
aI39
aI238
aI22
aI8
aI32
aI23
aI9
aI31
aI78
aI90
aI134
aI89
aI71
aI14
aI464
aI17
aI14
aI211
aI161
aI92
aI8
aI29
aI113
aI26
aI132
aI10
aI29
aI166
aI9
aI9
aI164
aI91
aI64
aI55
aI60
aI165
aI67
aI87
aI30
aI8
aI564
aI35
aI304
aI12
aI190
aI27
aI79
aI130
aI10
aI27
aI126
aI145
aI219
aI647
asS'S\x10'
p178
(lp179
I1407
aI586
asS'S\x08'
p180
(lp181
I442
aI228
aI331
aI211
aI212
asS'S\r'
p182
(lp183
I251
asS' U'
p184
(lp185
I116
aI208
aI198
aI557
aI97
aI121
aI130
aI23
aI69
asS'F\x08'
p186
(lp187
I310
aI295
aI215
asS'SY'
p188
(lp189
I56
aI10
aI40
asS'SS'
p190
(lp191
I153
aI86
aI49
aI90
aI94
aI95
aI168
aI158
aI93
aI87
aI87
aI99
aI91
aI147
asS'SR'
p192
(lp193
I50
aI32
asS'\xbf '
p194
(lp195
I108
aI193
aI117
asS'SU'
p196
(lp197
I197
aI48
aI11
aI45
aI47
aI188
aI23
aI44
aI23
aI26
aI45
aI22
aI28
aI40
asS'ST'
p198
(lp199
I11
aI43
aI32
aI36
aI35
aI10
aI13
aI48
aI56
aI50
aI13
aI63
aI21
aI10
aI193
aI14
aI15
aI10
aI36
aI64
asS'F '
p200
(lp201
I31
aI9
aI43
aI40
aI100
aI30
aI24
aI70
aI11
aI103
aI45
aI28
aI16
aI36
aI53
aI29
aI35
aI50
aI54
aI38
aI10
aI12
aI9
aI39
aI50
aI23
aI63
aI46
aI47
aI34
aI16
aI8
aI43
aI107
aI10
aI27
asS'TG'
p202
(lp203
I137
asS'SI'
p204
(lp205
I10
aI34
aI180
aI681
aI46
aI150
aI24
aI191
aI56
aI25
aI131
aI23
aI53
aI168
aI158
aI154
aI149
aI105
aI25
aI47
asS'SH'
p206
(lp207
I422
aI210
aI50
aI9
aI20
aI20
aI517
aI255
aI213
aI11
asS'SO'
p208
(lp209
I91
aI9
aI157
aI176
aI10
aI29
aI434
aI97
aI199
aI96
asS'SN'
p210
(lp211
I183
aI216
aI13
aI116
aI174
aI199
aI191
asS'SM'
p212
(lp213
I18
aI152
asS'SL'
p214
(lp215
I109
aI9
aI31
aI10
aI9
aI23
aI9
aI9
aI560
asS'SC'
p216
(lp217
I92
asS'SA'
p218
(lp219
I150
aI163
aI211
aI108
aI124
asS'SF'
p220
(lp221
I544
asS'SE'
p222
(lp223
I96
aI390
aI125
aI93
aI91
aI103
aI113
aI90
aI92
aI118
aI114
aI315
aI134
aI166
aI168
aI110
aI115
aI89
aI129
aI89
aI110
aI184
aI144
aI75
aI110
aI78
aI103
aI71
aI92
aI104
aI89
aI138
aI130
aI82
aI80
aI96
asS'YI'
p224
(lp225
I110
aI108
aI383
aI190
aI93
aI47
aI337
asS'YH'
p226
(lp227
I215
asS'S\xbf'
p228
(lp229
I640
asS'S\xbe'
p230
(lp231
I503
aI377
aI593
aI47
aI692
aI837
aI3427
asS'YO'
p232
(lp233
I106
aI97
aI135
aI129
aI102
aI97
aI103
aI112
aI101
aI91
aI142
aI136
aI135
aI67
aI142
aI117
aI126
aI280
aI115
aI126
aI104
aI105
aI82
aI93
aI98
aI90
aI85
aI98
aI137
aI130
aI105
aI127
aI96
aI90
aI123
aI117
aI153
aI108
aI117
aI88
aI102
aI127
aI82
aI109
aI79
aI102
asS'S\xbc'
p234
(lp235
I386
aI914
asS'YA'
p236
(lp237
I20
aI39
asS'YC'
p238
(lp239
I220
asS'  '
p240
(lp241
I863
asS'YP'
p242
(lp243
I173
asS'YS'
p244
(lp245
I85
aI18
aI84
asS'YR'
p246
(lp247
I87
aI149
aI114
aI163
asS'YU'
p248
(lp249
I136
aI37
asS'YT'
p250
(lp251
I56
aI161
aI110
aI440
asS'LD'
p252
(lp253
I63
aI149
aI119
aI177
aI190
asS'LE'
p254
(lp255
I368
aI179
aI9
aI109
aI13
aI13
aI20
aI9
aI14
aI9
aI29
aI9
aI9
aI217
aI22
aI9
aI156
aI9
aI201
aI377
aI230
aI22
aI22
aI16
aI62
aI54
aI18
aI9
aI185
aI189
aI25
aI164
aI35
aI100
aI81
aI68
aI55
aI21
asS'LA'
p256
(lp257
I23
aI15
aI36
aI9
aI30
aI21
aI10
aI25
aI61
aI70
aI123
aI47
aI210
asS'LN'
p258
(lp259
I191
asS'LO'
p260
(lp261
I139
aI177
aI253
aI104
aI121
aI88
aI82
aI119
aI137
aI180
aI115
aI85
aI85
aI100
aI103
asS'LL'
p262
(lp263
I87
aI71
aI70
aI85
aI93
aI83
aI78
aI75
aI82
aI70
aI85
aI72
aI82
aI90
asS'LK'
p264
(lp265
I101
aI134
aI96
asS'LI'
p266
(lp267
I125
aI199
aI124
aI95
aI118
aI103
aI130
aI120
aI117
aI104
aI794
aI100
aI115
asS'LT'
p268
(lp269
I245
aI153
aI183
aI149
aI310
aI218
aI154
aI124
aI260
aI174
aI252
aI173
aI221
aI153
aI150
aI214
aI187
aI147
aI167
aI139
asS'LU'
p270
(lp271
I127
aI116
aI105
aI178
asS'LR'
p272
(lp273
I148
aI170
aI80
aI158
asS'LS'
p274
(lp275
I157
aI19
aI9
aI95
aI211
aI152
asS'LP'
p276
(lp277
I106
aI94
aI94
aI114
asS'LY'
p278
(lp279
I496
aI224
aI161
aI125
aI188
aI158
asS'Y\x08'
p280
(lp281
I347
asS'L '
p282
(lp283
I40
aI122
aI121
aI583
aI187
aI71
aI114
aI318
aI50
aI61
aI178
aI26
aI76
aI1938
aI306
aI43
aI20
aI51
aI731
asS'H '
p284
(lp285
I44
aI1389
aI68
aI23
aI25
aI55
aI21
aI24
aI22
aI91
aI34
aI97
aI50
aI62
aI32
aI207
aI10
aI133
asS'GG'
p286
(lp287
I447
asS'Y '
p288
(lp289
I59
aI37
aI158
aI48
aI9
aI67
aI165
aI90
aI385
aI98
aI30
aI121
aI124
aI69
aI127
aI1247
aI51
aI406
aI43
aI69
aI50
aI489
aI199
aI88
aI191
aI571
aI1001
aI79
aI150
aI117
aI39
aI154
aI144
aI38
aI763
aI87
aI81
aI31
aI324
aI94
aI84
aI200
aI68
aI45
aI616
aI76
aI85
aI97
aI85
aI79
aI129
aI84
aI198
aI121
aI70
aI64
aI75
asS'L\x08'
p290
(lp291
I339
aI510
asS'GA'
p292
(lp293
I269
aI329
aI164
aI666
aI28
aI128
aI26
asS'RT'
p294
(lp295
I47
aI36
aI379
aI111
aI101
aI699
aI149
aI14
aI237
aI33
aI136
aI9
aI95
aI222
aI112
aI46
aI10
aI93
aI163
asS'RU'
p296
(lp297
I144
aI53
aI95
aI58
aI32
aI36
aI104
aI76
aI47
asS'RV'
p298
(lp299
I325
aI160
aI9
aI84
aI44
aI47
aI138
aI66
aI165
asS'RR'
p300
(lp301
I101
aI283
aI114
aI52
asS'RS'
p302
(lp303
I118
aI739
aI357
aI193
aI75
aI174
aI176
aI49
aI199
aI199
asS'RY'
p304
(lp305
I13
aI488
aI119
aI22
aI11
aI143
aI125
aI139
aI131
aI144
asS'E\xbd'
p306
(lp307
I171
asS'RE'
p308
(lp309
I101
aI92
aI110
aI320
aI391
aI104
aI96
aI9
aI155
aI98
aI84
aI89
aI168
aI150
aI102
aI299
aI101
aI97
aI97
aI91
aI96
aI85
aI97
aI97
aI511
aI125
aI107
aI30
aI87
aI162
aI26
aI85
aI89
aI81
aI125
aI89
aI98
aI175
aI84
aI115
aI264
aI87
aI99
aI101
aI179
aI100
aI17
aI12
aI107
aI101
aI88
aI147
aI187
aI87
aI100
aI112
asS'RF'
p310
(lp311
I541
asS'E\xbe'
p312
(lp313
I630
asS'2 '
p314
(lp315
I23
asS'RA'
p316
(lp317
I226
aI221
aI232
aI217
aI218
aI356
aI199
aI216
aI228
aI283
aI241
asS'RB'
p318
(lp319
I525
asS'RC'
p320
(lp321
I678
aI218
asS'RM'
p322
(lp323
I120
aI57
asS'RN'
p324
(lp325
I108
aI91
aI102
aI993
asS'RO'
p326
(lp327
I190
aI37
aI79
aI190
aI118
aI92
aI139
aI32
aI39
aI14
aI86
aI19
aI43
aI127
aI39
aI183
aI36
aI12
aI10
aI235
aI54
aI177
aI12
asS'RH'
p328
(lp329
I127
asS'RI'
p330
(lp331
I171
aI1046
aI130
aI509
aI180
aI170
aI257
aI40
aI32
aI108
aI23
aI287
aI112
aI23
aI8
aI10
aI199
aI72
aI62
aI163
aI50
aI76
aI30
aI62
aI230
aI168
aI30
asS'RK'
p332
(lp333
I173
asS'R '
p334
(lp335
I30
aI9
aI56
aI75
aI10
aI220
aI18
aI9
aI111
aI103
aI53
aI45
aI89
aI27
aI135
aI47
aI9
aI17
aI70
aI74
aI20
aI31
aI116
aI50
aI58
aI76
aI44
aI29
aI48
aI87
aI98
aI49
aI1335
aI98
aI32
aI56
aI32
aI38
aI23
aI74
aI50
aI75
aI9
aI8
aI719
aI18
aI138
aI17
aI38
aI148
aI29
aI60
aI40
aI85
aI113
aI53
aI8
aI34
aI121
aI164
aI41
aI68
aI9
aI391
aI88
aI63
aI150
aI34
aI99
aI24
aI39
aI34
aI11
aI109
aI21
aI11
aI23
aI56
aI12
aI165
aI22
aI25
aI18
aI94
aI10
aI56
aI43
aI125
aI44
asS'\x10U'
p336
(lp337
I8
asS'R\x08'
p338
(lp339
I294
aI423
aI243
aI503
aI170
aI273
aI331
aI386
aI249
asS'E\x08'
p340
(lp341
I503
aI1089
aI280
aI432
aI123
aI517
aI197
aI309
asS'E\x10'
p342
(lp343
I512
asS'\xbdR'
p344
(lp345
I129
asS'2\xbd'
p346
(lp347
I208
asS'E '
p348
(lp349
I49
aI55
aI30
aI26
aI73
aI31
aI37
aI40
aI49
aI8
aI42
aI34
aI9
aI13
aI15
aI194
aI40
aI17
aI33
aI9
aI8
aI42
aI329
aI35
aI34
aI22
aI45
aI21
aI9
aI14
aI44
aI17
aI28
aI999
aI29
aI27
aI42
aI55
aI63
aI38
aI10
aI10
aI30
aI38
aI11
aI47
aI116
aI17
aI39
aI125
aI61
aI25
aI43
aI561
aI27
aI39
aI30
aI13
aI13
aI105
aI12
aI26
aI34
aI389
aI57
aI84
aI10
aI15
aI29
aI66
aI9
aI70
aI36
aI213
aI79
aI16
aI125
aI37
aI71
aI44
aI42
aI31
aI9
aI106
aI63
aI50
aI132
aI106
aI115
aI95
aI89
aI16
aI99
aI42
aI9
aI75
aI65
aI31
aI113
aI72
aI35
aI36
aI19
aI522
aI114
aI168
aI9
aI217
aI21
aI107
aI18
aI40
aI79
aI59
aI107
aI19
aI23
aI131
aI19
aI14
aI19
aI53
aI187
aI9
aI20
aI100
aI41
aI44
aI111
aI9
aI95
aI17
asS'\xbdG'
p350
(lp351
I281
asS'\xbdF'
p352
(lp353
I246
aI160
asS'VI'
p354
(lp355
I222
aI191
aI144
aI150
aI131
aI131
aI132
aI151
aI178
aI124
aI156
aI136
aI148
aI157
aI167
asS'EM'
p356
(lp357
I60
aI121
aI127
aI79
aI72
aI37
aI179
aI166
aI124
asS'EL'
p358
(lp359
I61
aI62
aI40
aI50
aI55
aI41
aI42
aI22
aI16
aI37
aI11
aI70
aI418
aI130
aI77
aI159
aI26
asS'EO'
p360
(lp361
I40
aI30
aI47
aI122
aI99
aI146
asS'EN'
p362
(lp363
I10
aI180
aI52
aI240
aI264
aI94
aI46
aI132
aI9
aI23
aI351
aI20
aI10
aI122
aI31
aI168
aI20
aI40
aI10
aI9
aI14
aI17
aI23
aI146
aI81
aI9
aI260
aI16
aI23
aI21
aI21
aI29
aI20
aI157
aI41
aI21
aI8
aI82
asS'EI'
p364
(lp365
I25
aI272
aI131
aI15
aI11
aI183
aI221
aI154
aI61
aI54
asS'EK'
p366
(lp367
I9
aI164
asS'EE'
p368
(lp369
I85
aI84
aI145
aI101
aI73
aI104
aI49
aI71
aI115
aI10
aI129
aI171
aI159
aI96
aI112
aI201
aI157
aI91
aI164
aI119
asS'ED'
p370
(lp371
I101
aI607
aI177
aI700
aI113
aI94
aI95
aI99
aI393
aI437
aI118
aI189
aI111
aI108
aI95
aI86
aI92
aI97
aI129
aI117
aI100
aI61
aI18
aI69
asS'EG'
p372
(lp373
I250
aI54
aI61
aI508
aI83
aI32
aI71
aI24
aI31
aI59
asS'EF'
p374
(lp375
I115
aI94
aI122
aI325
asS'EA'
p376
(lp377
I112
aI120
aI179
aI216
aI198
aI149
aI141
aI112
aI223
aI115
aI127
aI225
aI131
aI109
aI137
aI204
aI428
aI121
aI320
aI104
aI119
aI127
aI124
aI135
aI122
aI211
aI201
aI107
aI127
aI235
aI116
aI117
aI129
aI119
aI121
aI178
aI118
aI155
aI263
aI182
aI122
aI254
aI117
aI219
aI214
aI201
aI93
aI159
aI131
aI122
aI112
aI116
aI209
aI116
aI447
aI130
aI211
aI201
aI127
aI108
asS'NJ'
p378
(lp379
I127
aI165
asS'EC'
p380
(lp381
I275
aI124
aI190
aI170
aI112
aI96
aI308
aI163
aI49
aI130
aI177
aI180
aI137
asS'EB'
p382
(lp383
I99
asS'EY'
p384
(lp385
I40
aI36
aI69
asS'EX'
p386
(lp387
I127
aI445
aI181
aI121
aI341
aI176
aI167
asS'EU'
p388
(lp389
I352
asS'ET'
p390
(lp391
I16
aI41
aI9
aI28
aI202
aI43
aI17
aI62
aI146
aI14
aI67
aI82
aI191
aI18
aI91
aI11
aI291
aI9
aI80
aI172
aI56
asS'EV'
p392
(lp393
I17
aI10
aI159
aI22
aI237
aI13
aI76
aI106
asS'EQ'
p394
(lp395
I277
asS'EP'
p396
(lp397
I338
aI35
aI257
aI17
aI35
aI171
aI46
aI201
aI157
aI17
aI84
asS'ES'
p398
(lp399
I98
aI108
aI113
aI79
aI104
aI108
aI415
aI103
aI183
aI143
aI105
aI104
aI117
aI94
aI132
aI114
aI288
aI103
aI106
aI156
aI110
aI109
aI103
aI123
aI110
aI276
aI678
aI116
aI188
aI85
aI133
aI96
aI158
aI371
aI163
aI90
aI114
aI182
aI96
aI112
aI116
aI116
aI89
aI113
aI167
aI153
aI123
aI92
aI172
aI191
aI213
aI144
aI110
aI106
asS'ER'
p400
(lp401
I83
aI9
aI368
aI268
aI95
aI76
aI118
aI85
aI160
aI272
aI107
aI327
aI104
aI120
aI14
aI135
aI77
aI88
aI84
aI79
aI89
aI86
aI99
aI103
aI138
aI623
aI89
aI87
aI165
aI95
aI93
aI72
aI119
aI87
aI197
aI96
aI114
aI237
aI143
aI76
aI83
aI68
aI78
aI138
aI49
aI67
aI74
aI78
aI139
aI131
aI75
aI67
aI58
aI97
aI84
aI68
aI90
aI54
aI88
aI11
aI86
aI33
aI81
aI168
aI81
aI96
aI278
aI91
aI81
asS'X\x08'
p402
(lp403
I316
asS'K '
p404
(lp405
I164
aI194
aI10
aI10
aI77
aI110
aI26
aI19
aI25
aI345
aI51
asS'VV'
p406
(lp407
I12
asS'X '
p408
(lp409
I152
asS'K\x08'
p410
(lp411
I291
asS'IF'
p412
(lp413
I70
aI283
aI585
aI16
aI12
aI9
aI309
aI157
aI52
aI9
aI37
aI36
aI10
aI19
aI107
aI59
aI171
aI81
aI508
asS'XC'
p414
(lp415
I262
aI180
asS'XE'
p416
(lp417
I185
aI122
asS'XP'
p418
(lp419
I53
aI50
asS'XT'
p420
(lp421
I181
asS'11'
p422
(lp423
I127
asS'KB'
p424
(lp425
I313
asS'KE'
p426
(lp427
I8
aI177
aI44
aI185
aI157
aI164
aI10
aI10
aI70
aI34
aI42
aI89
aI173
aI147
aI19
aI26
aI16
asS'KK'
p428
(lp429
I96
asS'KI'
p430
(lp431
I97
aI118
aI85
aI117
aI81
asS'KN'
p432
(lp433
I108
aI103
asS'KL'
p434
(lp435
I96
aI170
asS'KS'
p436
(lp437
I13
aI9
asS'1 '
p438
(lp439
I152
aI59
asS'WN'
p440
(lp441
I190
aI155
asS'KY'
p442
(lp443
I138
asS'DO'
p444
(lp445
I12
aI23
aI41
aI10
aI108
aI43
aI23
aI161
aI524
aI32
aI426
asS'DI'
p446
(lp447
I167
aI22
aI47
aI149
aI103
aI18
aI171
aI30
aI10
aI22
aI13
aI40
aI9
aI37
aI117
aI51
aI15
asS'DD'
p448
(lp449
I10
aI94
aI170
asS'DE'
p450
(lp451
I75
aI87
aI147
aI131
aI82
aI93
aI92
aI102
aI112
aI149
aI151
aI437
aI55
aI89
aI93
aI44
aI143
aI75
aI89
aI72
asS'DA'
p452
(lp453
I216
aI123
aI188
aI145
aI472
aI203
aI178
aI139
aI201
aI201
asS'DY'
p454
(lp455
I59
aI85
aI67
aI147
aI37
aI108
asS'DV'
p456
(lp457
I123
aI146
asS'DT'
p458
(lp459
I162
asS'DU'
p460
(lp461
I173
aI254
aI13
aI59
aI49
aI374
aI40
aI40
aI14
aI52
aI18
aI1148
asS'DR'
p462
(lp463
I119
aI171
asS'DS'
p464
(lp465
I108
aI148
aI112
aI147
aI104
aI119
aI102
aI109
aI108
aI103
aI107
aI115
aI100
aI172
aI115
aI107
aI109
aI247
aI109
aI110
aI108
aI52
aI104
asS'K\xbc'
p466
(lp467
I1047
asS'D\x08'
p468
(lp469
I367
aI159
aI347
aI230
aI287
aI265
asS'QU'
p470
(lp471
I34
asS'D '
p472
(lp473
I30
aI34
aI472
aI119
aI101
aI47
aI580
aI63
aI97
aI71
aI23
aI48
aI9
aI1620
aI43
aI103
aI38
aI46
aI68
aI17
aI39
aI54
aI82
aI9
aI25
aI84
aI81
aI230
aI19
aI9
aI68
aI13
aI36
aI26
aI149
aI301
aI119
aI9
aI124
aI68
aI34
aI28
aI30
aI35
aI54
aI66
aI136
aI15
aI48
aI54
aI40
aI38
aI66
aI45
aI57
aI41
aI192
aI31
aI420
aI26
aI66
aI216
aI27
aI29
aI15
aI495
aI17
aI52
aI31
aI38
aI49
aI52
aI30
aI66
aI74
aI12
aI9
asS'WG'
p474
(lp475
I132
asS'WE'
p476
(lp477
I575
aI473
aI177
aI93
aI183
aI14
aI246
aI103
aI99
aI116
aI119
asS'WA'
p478
(lp479
I99
aI169
aI207
asS'\xbe\xbf'
p480
(lp481
I319
asS'WO'
p482
(lp483
I29
asS'JU'
p484
(lp485
I111
aI112
aI109
asS'WI'
p486
(lp487
I9
aI42
aI17
aI123
aI27
aI14
aI51
aI671
asS'WH'
p488
(lp489
I1557
aI472
aI179
aI9
aI10
aI10
aI1261
aI273
aI81
aI16
aI135
asS'JO'
p490
(lp491
I120
aI113
aI130
asS'WS'
p492
(lp493
I211
aI180
asS'WR'
p494
(lp495
I385
aI662
asS'JA'
p496
(lp497
I18
asS'JB'
p498
(lp499
I113
asS'10'
p500
(lp501
I9
asS'P\xbc'
p502
(lp503
I709
asS'W\x08'
p504
(lp505
I292
asS'\x10S'
p506
(lp507
I48
asS'\x10T'
p508
(lp509
I156
asS'W '
p510
(lp511
I74
aI46
aI19
aI413
aI115
aI10
aI32
aI23
aI506
aI60
aI184
aI21
asS'\x10Y'
p512
(lp513
I208
asS'BV'
p514
(lp515
I138
asS'\x10D'
p516
(lp517
I97
asS'\x10E'
p518
(lp519
I-1
aI1232
aI635
asS'\x10H'
p520
(lp521
I269
asS'\x10I'
p522
(lp523
I167
asS'J '
p524
(lp525
I132
aI10
asS'\x10L'
p526
(lp527
I139
asS'\x10\xbe'
p528
(lp529
I319
asS'\x10\xbf'
p530
(lp531
I1407
aI586
aI512
asS'\xbe '
p532
(lp533
I208
aI148
aI143
aI19
aI64
aI140
aI124
aI105
aI178
aI51
aI105
aI179
aI160
aI167
aI258
aI180
aI63
aI236
aI29
aI926
aI97
aI311
aI252
asS'0\x08'
p534
(lp535
I255
asS'PR'
p536
(lp537
I16
aI1730
aI10
aI9
aI10
aI15
aI50
aI27
aI27
aI12
aI20
aI20
aI22
aI37
aI33
asS'PS'
p538
(lp539
I28
aI45
aI21
aI55
aI45
aI15
asS'PP'
p540
(lp541
I99
aI77
aI85
asS'PW'
p542
(lp543
I316
asS'PU'
p544
(lp545
I171
asS'PY'
p546
(lp547
I244
asS'\xbe\x08'
p548
(lp549
I467
asS'0 '
p550
(lp551
I66
aI515
asS'PA'
p552
(lp553
I53
aI220
aI40
aI13
aI60
aI56
aI37
aI8
asS'\xbe\r'
p554
(lp555
I261
aI304
asS'PE'
p556
(lp557
I15
aI46
aI44
aI133
aI9
aI99
aI9
aI34
aI49
aI24
asS'PH'
p558
(lp559
I194
asS'PI'
p560
(lp561
I224
aI113
aI166
aI142
aI127
aI116
aI1347
aI131
asS'PO'
p562
(lp563
I156
aI282
aI208
aI220
aI171
aI184
asS'PL'
p564
(lp565
I115
aI368
aI102
aI131
aI87
aI201
aI99
asS'P '
p566
(lp567
I83
aI54
aI670
aI45
aI67
aI64
aI191
aI351
aI49
aI143
aI27
aI93
aI49
aI38
aI70
aI37
aI294
asS'P\x08'
p568
(lp569
I406
aI176
aI232
asS'C\x08'
p570
(lp571
I269
asS'RD'
p572
(lp573
I296
aI136
aI76
aI302
asS'E\xbc'
p574
(lp575
I717
asS'C '
p576
(lp577
I51
aI61
asS'RG'
p578
(lp579
I123
asS'CK'
p580
(lp581
I32
aI11
aI217
aI163
aI160
aI177
aI180
aI191
asS'CJ'
p582
(lp583
I36
asS'CI'
p584
(lp585
I70
aI282
asS'CH'
p586
(lp587
I119
aI53
aI106
aI100
aI6
aI62
aI10
aI37
aI22
aI266
aI51
aI133
aI12
aI20
aI13
aI11
aI25
aI20
aI65
aI102
aI147
aI27
aI221
aI416
aI123
aI40
asS'CO'
p588
(lp589
I9
aI71
aI9
aI357
aI170
aI44
aI9
aI157
aI34
asS'CL'
p590
(lp591
I42
aI29
aI179
aI44
aI17
aI170
asS'CC'
p592
(lp593
I71
aI424
aI95
asS'CA'
p594
(lp595
I214
aI235
aI123
aI122
aI180
aI208
aI117
aI179
aI215
aI174
aI299
aI235
aI104
aI195
aI120
aI181
aI538
asS'CG'
p596
(lp597
I19
asS'CE'
p598
(lp599
I73
aI88
aI34
aI368
aI126
aI179
aI87
aI127
aI115
aI47
aI131
aI61
aI139
aI218
aI137
aI357
aI149
aI71
aI134
aI124
aI14
aI68
aI75
aI10
aI66
aI82
aI102
aI22
aI355
asS'CY'
p600
(lp601
I36
aI51
asS'CR'
p602
(lp603
I102
aI168
aI91
aI9
aI175
aI48
asS'CU'
p604
(lp605
I39
aI9
aI10
aI26
aI86
asS'CT'
p606
(lp607
I16
aI52
aI216
aI172
aI103
aI57
aI9
aI308
aI74
asS'\xbb\x08'
p608
(lp609
I339
aI268
asS'MN'
p610
(lp611
I252
aI135
asS'I\x08'
p612
(lp613
I587
aI610
aI434
aI254
asS'6\xbd'
p614
(lp615
I411
asS'V '
p616
(lp617
I106
asS'K\xbe'
p618
(lp619
I252
asS'I '
p620
(lp621
I123
aI20
aI101
aI50
asS'IY'
p622
(lp623
I171
aI85
aI183
asS'VA'
p624
(lp625
I20
aI25
aI11
aI9
asS'VB'
p626
(lp627
I8
aI109
aI130
aI76
asS'IZ'
p628
(lp629
I311
aI62
aI17
aI62
asS'VE'
p630
(lp631
I29
aI34
aI21
aI635
aI210
aI37
aI13
aI188
aI159
aI9
aI9
aI94
aI66
aI10
aI15
aI25
aI13
aI218
aI80
aI23
aI12
aI51
aI12
aI11
aI209
aI79
aI88
aI54
aI88
asS'IP'
p632
(lp633
I151
aI424
aI113
aI132
aI126
asS'IS'
p634
(lp635
I86
aI226
aI303
aI31
aI31
aI180
aI20
aI14
aI8
aI140
aI159
aI109
aI9
aI98
aI64
aI17
aI8
aI255
aI38
aI54
aI9
aI242
asS'IR'
p636
(lp637
I67
aI130
aI197
aI51
aI48
aI97
aI42
aI94
aI56
aI265
asS'IU'
p638
(lp639
I137
aI32
aI162
aI481
aI89
aI107
aI30
aI56
aI93
asS'IT'
p640
(lp641
I156
aI185
aI135
aI189
aI179
aI1283
aI149
aI130
aI160
aI172
aI1063
aI465
aI113
aI135
aI131
aI127
aI143
aI144
aI140
aI120
aI136
aI133
aI135
aI136
aI170
aI121
asS'IV'
p642
(lp643
I210
aI113
aI126
aI143
aI140
aI180
asS'II'
p644
(lp645
I101
aI481
aI381
asS'IH'
p646
(lp647
I214
asS'IK'
p648
(lp649
I173
aI147
asS'IM'
p650
(lp651
I110
aI191
aI144
aI131
aI124
aI210
aI103
aI327
aI117
aI110
aI157
asS'IL'
p652
(lp653
I179
aI123
aI101
aI446
aI116
aI143
aI123
aI163
aI136
aI103
aI173
aI177
asS'IO'
p654
(lp655
I98
aI109
aI88
aI91
aI105
aI18
aI111
aI159
aI155
aI101
aI120
aI122
aI127
aI101
aI102
aI144
aI120
aI118
aI9
aI150
asS'IN'
p656
(lp657
I127
aI139
aI118
aI167
aI131
aI116
aI111
aI147
aI154
aI145
aI117
aI109
aI111
aI122
aI113
aI132
aI123
aI126
aI148
aI139
aI111
aI120
aI127
aI106
aI130
aI98
aI102
aI112
aI120
aI111
aI128
aI132
aI131
aI110
aI119
aI191
aI114
aI135
aI134
aI136
aI177
aI120
aI109
aI109
aI124
aI141
aI95
aI116
aI278
aI336
aI117
aI222
aI113
aI103
aI149
aI109
aI131
aI119
aI103
aI113
aI110
aI110
aI108
aI207
aI111
aI234
aI100
aI94
aI122
aI96
aI123
aI202
aI128
aI115
aI150
aI108
aI129
aI106
aI96
aI92
aI172
aI109
aI110
aI119
aI321
aI115
aI136
asS'IA'
p658
(lp659
I28
aI47
aI119
aI100
aI19
aI117
aI147
aI15
asS'IC'
p660
(lp661
I49
aI34
aI23
aI16
aI287
aI100
aI10
aI10
aI133
aI71
aI237
aI68
aI78
aI18
asS'IB'
p662
(lp663
I124
aI145
aI127
asS'IE'
p664
(lp665
I717
aI9
aI130
aI11
aI22
aI170
aI264
aI8
aI20
aI218
aI13
aI33
aI16
aI9
aI131
aI43
aI23
aI26
aI35
aI230
aI23
aI56
aI171
asS'ID'
p666
(lp667
I82
aI10
aI57
aI193
aI8
aI237
aI151
aI26
aI15
aI39
aI143
aI89
aI72
aI21
asS'IG'
p668
(lp669
I124
aI151
aI126
aI110
aI106
aI133
aI129
aI111
aI141
aI113
aI146
aI111
asS'5 '
p670
(lp671
I76
asS'BE'
p672
(lp673
I188
aI25
aI123
aI54
aI162
aI59
aI78
aI206
aI9
aI95
aI24
aI12
aI52
aI13
aI20
aI37
aI10
asS'BA'
p674
(lp675
I47
aI67
aI10
aI45
aI190
aI39
aI18
aI30
aI67
aI20
aI30
aI25
aI59
asS'BL'
p676
(lp677
I217
aI157
aI170
aI141
aI137
aI217
aI179
aI198
aI143
aI185
aI170
asS'BN'
p678
(lp679
I113
asS'BO'
p680
(lp681
I154
aI156
aI195
asS'BI'
p682
(lp683
I172
aI138
aI139
asS'O '
p684
(lp685
I23
aI75
aI58
aI670
aI103
aI72
aI84
aI58
aI28
aI21
aI28
aI9
aI41
aI42
aI31
aI10
aI25
aI106
aI34
aI135
aI14
aI41
aI36
aI39
aI64
aI24
aI38
aI65
aI52
aI73
aI66
aI227
aI28
aI32
aI27
aI36
aI39
aI48
aI71
aI50
aI12
asS'BU'
p686
(lp687
I116
aI124
aI149
aI127
asS'\x08\x08'
p688
(lp689
I90
aI89
aI108
aI94
aI127
aI341
aI92
aI381
aI88
aI100
aI104
aI93
aI109
aI370
aI95
aI129
aI114
aI82
aI101
aI108
aI84
aI91
aI89
aI103
aI121
aI560
aI81
aI100
aI169
aI99
aI92
aI78
aI223
asS'BR'
p690
(lp691
I34
aI125
aI11
aI9
aI170
asS'\x08C'
p692
(lp693
I803
aI732
aI60
aI15
aI66
aI93
asS'BY'
p694
(lp695
I115
asS'O\x08'
p696
(lp697
I417
aI341
aI623
aI270
aI341
asS'\x08 '
p698
(lp699
I493
aI234
aI1013
aI183
aI341
aI212
asS'\x08Z'
p700
(lp701
I48
asS'\x08X'
p702
(lp703
I224
asS'\x08Y'
p704
(lp705
I445
aI147
asS'\x08R'
p706
(lp707
I440
aI127
asS'\x08S'
p708
(lp709
I45
aI38
aI722
asS'\x08P'
p710
(lp711
I129
aI425
aI110
aI99
aI166
aI100
asS'\x08T'
p712
(lp713
I165
aI150
aI261
aI195
asS'\x08U'
p714
(lp715
I436
asS'\x08J'
p716
(lp717
I374
aI162
asS'\x08H'
p718
(lp719
I379
aI538
aI135
asS'\x08I'
p720
(lp721
I720
aI218
aI130
aI151
aI144
aI137
aI171
aI174
asS'\x08N'
p722
(lp723
I152
aI137
asS'\x08O'
p724
(lp725
I2111
aI129
aI726
aI115
aI107
aI183
aI487
aI335
aI147
asS'\x08L'
p726
(lp727
I129
aI156
aI127
aI125
asS'\x08M'
p728
(lp729
I156
aI521
aI145
aI131
aI159
asS'\x08B'
p730
(lp731
I198
asS'B '
p732
(lp733
I21
aI77
aI30
asS'\x08A'
p734
(lp735
I742
aI80
aI730
aI43
aI147
aI53
asS'\x08F'
p736
(lp737
I51
aI314
aI646
aI35
aI153
asS'\x08D'
p738
(lp739
I87
aI9
aI82
asS'\x08E'
p740
(lp741
I66
aI9
aI49
asS'OO'
p742
(lp743
I81
aI77
aI78
aI86
aI88
aI80
aI169
aI87
aI82
aI73
aI89
aI83
aI165
aI83
aI81
aI82
aI81
aI60
aI75
aI159
aI82
aI71
aI75
aI81
aI88
aI111
aI76
aI74
aI67
aI77
aI77
aI69
aI75
aI80
aI168
aI87
aI83
aI74
aI88
aI70
aI153
aI152
aI49
aI83
aI78
aI80
aI75
aI139
aI86
aI69
asS'ON'
p744
(lp745
I129
aI186
aI117
aI133
aI171
aI170
aI141
aI123
aI135
aI101
aI135
aI130
aI117
aI122
aI128
aI124
aI146
aI129
aI144
aI126
aI663
aI124
aI116
aI158
aI193
aI120
aI137
aI111
aI134
aI116
aI133
aI131
aI128
aI119
aI144
asS'OM'
p746
(lp747
I276
aI113
aI221
aI290
aI129
aI361
aI179
aI136
aI252
aI135
aI142
asS'OL'
p748
(lp749
I119
aI125
aI106
aI133
aI112
aI117
asS'OK'
p750
(lp751
I99
aI100
aI101
aI177
aI185
asS'OJ'
p752
(lp753
I161
asS'OI'
p754
(lp755
I169
aI106
aI10
aI91
aI308
aI107
aI175
aI611
aI56
aI179
aI29
asS'H\xbd'
p756
(lp757
I927
asS'OG'
p758
(lp759
I180
aI129
asS'OF'
p760
(lp761
I27
aI8
aI209
aI1440
aI741
aI161
aI10
aI9
aI184
aI103
aI134
aI143
aI133
aI10
aI155
aI8
aI8
aI107
aI36
aI24
aI66
aI156
aI139
aI222
aI145
aI9
aI73
aI30
asS'OE'
p762
(lp763
I13
aI39
aI143
aI137
aI10
aI33
asS'OD'
p764
(lp765
I75
aI21
aI22
aI10
aI119
aI169
aI59
aI61
aI18
aI13
aI65
aI9
aI165
aI12
aI29
aI12
aI48
aI159
aI39
aI28
aI14
aI21
aI55
aI28
aI653
aI16
aI17
aI26
aI12
aI10
aI168
aI20
aI9
aI44
aI153
aI152
aI174
aI21
aI10
aI75
aI9
aI12
aI195
asS'OB'
p766
(lp767
I141
aI138
aI181
aI161
aI187
asS'OA'
p768
(lp769
I45
asS'OY'
p770
(lp771
I136
aI136
aI127
aI168
aI139
aI195
aI552
asS'OX'
p772
(lp773
I170
asS'OW'
p774
(lp775
I177
aI9
aI224
aI169
aI168
aI210
aI18
aI180
aI52
aI9
aI30
aI41
aI23
aI213
aI8
asS'OV'
p776
(lp777
I171
aI140
aI139
aI157
aI154
aI218
aI209
aI244
aI211
asS'OU'
p778
(lp779
I119
aI56
aI75
aI104
aI92
aI102
aI97
aI107
aI71
aI173
aI103
aI60
aI63
aI91
aI104
aI102
aI177
aI67
aI142
aI56
aI105
aI10
aI105
aI115
aI145
aI104
aI105
aI67
aI118
aI93
aI98
aI98
aI68
aI85
aI109
aI98
aI125
aI106
aI137
aI79
aI130
aI64
aI127
aI96
aI69
aI92
aI62
aI113
aI153
aI108
aI75
aI88
aI102
aI114
aI99
aI114
aI150
aI72
aI105
aI79
aI102
aI187
asS'OT'
p780
(lp781
I148
aI174
aI255
aI272
aI142
aI162
aI198
aI160
aI149
aI146
aI146
aI113
aI131
aI126
aI162
aI159
aI148
aI139
asS'OS'
p782
(lp783
I17
aI68
aI28
aI54
aI17
aI15
aI11
aI62
aI139
asS'OR'
p784
(lp785
I44
aI24
aI203
aI10
aI10
aI64
aI89
aI10
aI95
aI10
aI103
aI9
aI89
aI9
aI74
aI156
aI58
aI9
aI132
aI87
aI45
aI17
aI59
aI57
aI49
aI403
aI91
aI9
aI18
aI19
aI87
aI10
aI9
aI36
aI43
aI9
aI18
aI88
aI19
aI8
aI49
aI187
aI16
aI109
aI9
aI9
aI14
aI94
aI17
aI9
asS'OP'
p786
(lp787
I214
aI119
aI165
aI90
aI586
aI127
aI789
aI123
asS'HY'
p788
(lp789
I99
aI78
aI88
aI110
aI142
asS'HR'
p790
(lp791
I177
asS'HS'
p792
(lp793
I214
asS'HT'
p794
(lp795
I102
aI126
aI110
aI92
aI132
aI106
aI94
aI96
aI120
aI108
aI104
asS'HU'
p796
(lp797
I100
aI93
asS'HJ'
p798
(lp799
I100
asS'O\xbe'
p800
(lp801
I162
asS'HI'
p802
(lp803
I120
aI125
aI114
aI112
aI139
aI146
aI125
aI150
aI149
aI120
aI115
asS'HN'
p804
(lp805
I259
aI113
aI96
asS'HO'
p806
(lp807
I149
aI147
aI130
aI169
aI164
aI116
aI224
aI134
aI140
aI130
aI168
aI210
aI391
aI124
aI125
aI116
aI158
aI139
aI137
aI125
aI118
aI117
aI128
aI213
aI136
asS'HA'
p808
(lp809
I9
aI9
aI8
aI142
aI115
aI94
aI139
aI101
aI46
aI71
aI168
aI26
aI9
aI51
aI141
aI71
aI135
aI37
aI47
aI119
aI10
aI171
aI13
asS'U '
p810
(lp811
I56
aI75
aI67
aI34
aI25
aI71
aI60
aI63
aI14
aI66
aI56
aI96
aI66
aI27
aI13
aI67
aI68
aI8
aI64
aI39
aI69
aI62
aI79
aI11
aI75
aI9
aI95
aI23
aI114
aI150
aI72
aI16
aI108
asS'HE'
p812
(lp813
I625
aI190
aI30
aI175
aI790
aI192
aI206
aI9
aI215
aI168
aI183
aI152
aI145
aI43
aI140
aI166
aI14
aI182
aI134
aI183
aI13
aI513
aI240
aI129
aI173
aI24
aI9
aI361
aI169
aI179
aI160
aI170
aI9
aI8
aI140
aI161
aI178
aI189
aI34
aI15
aI93
aI81
aI9
aI144
aI140
aI136
aI187
aI154
aI13
aI167
aI31
aI139
aI164
aI161
aI189
aI164
aI196
aI459
aI175
aI8
aI11
aI75
aI136
aI155
aI14
aI156
aI9
aI221
aI59
aI164
aI110
aI197
aI9
aI514
aI204
aI66
aI30
aI158
asS'\x08\xbe'
p814
(lp815
I198
aI146
aI139
aI168
aI207
aI559
aI135
asS'\x08\xbc'
p816
(lp817
I245
aI145
aI143
aI905
asS'U\x08'
p818
(lp819
I298
aI298
aI331
aI552
asS'H\x08'
p820
(lp821
I467
aI246
aI314
asS'AD'
p822
(lp823
I133
aI155
aI100
aI124
aI114
aI1767
aI130
aI126
aI116
aI90
aI109
aI150
aI108
aI207
asS'UY'
p824
(lp825
I1148
asS'UT'
p826
(lp827
I434
aI507
aI162
aI439
aI546
aI260
aI99
aI108
aI156
aI109
aI114
aI126
aI143
aI139
aI163
aI127
aI198
aI208
aI130
aI100
asS'UP'
p828
(lp829
I146
aI140
aI135
aI160
aI121
aI134
asS'US'
p830
(lp831
I725
aI9
aI30
aI20
aI34
aI25
aI16
asS'UR'
p832
(lp833
I55
aI63
aI51
aI19
aI9
aI45
aI177
aI46
aI81
aI145
aI61
aI15
aI10
aI136
aI15
aI20
aI10
aI107
aI22
aI18
aI305
aI23
aI210
aI41
aI39
aI51
aI17
aI18
aI25
asS'UM'
p834
(lp835
I134
asS'UL'
p836
(lp837
I204
aI250
aI149
aI361
aI178
aI123
aI119
aI141
aI190
aI111
aI210
asS'UO'
p838
(lp839
I552
asS'UN'
p840
(lp841
I148
aI109
aI116
aI167
aI117
asS'UI'
p842
(lp843
I197
aI32
aI190
aI152
aI45
aI116
aI111
aI40
aI193
asS'UE'
p844
(lp845
I158
aI63
asS'UD'
p846
(lp847
I147
aI88
aI178
asS'UG'
p848
(lp849
I125
aI107
aI119
aI167
aI121
aI139
asS'UF'
p850
(lp851
I159
asS'UA'
p852
(lp853
I39
aI146
aI41
aI151
aI56
aI84
aI205
aI133
asS'UC'
p854
(lp855
I119
aI36
aI254
aI106
aI46
aI17
aI105
aI32
aI47
aI9
aI374
aI39
aI149
aI134
aI17
aI64
asS'UB'
p856
(lp857
I340
aI103
asS'AW'
p858
(lp859
I121
asS'\xbc '
p860
(lp861
I245
aI9
aI9
aI118
aI9
aI485
aI35
aI717
aI905
aI11
aI593
aI10
aI407
aI35
asS'NH'
p862
(lp863
I759
asS'NI'
p864
(lp865
I137
aI162
aI150
aI139
aI98
aI123
aI100
aI214
aI115
asS'T\xdc'
p866
(lp867
I433
asS'NK'
p868
(lp869
I118
aI141
asS'NM'
p870
(lp871
I94
aI260
asS'NO'
p872
(lp873
I147
aI137
aI169
aI136
aI111
aI127
aI126
aI24
aI118
aI116
aI111
aI111
asS'NA'
p874
(lp875
I253
aI9
aI139
aI28
aI564
aI52
aI19
aI113
aI126
aI96
aI29
aI27
asS'NC'
p876
(lp877
I88
aI64
aI126
aI179
aI15
aI41
aI87
aI127
aI92
aI137
aI110
aI82
aI102
aI105
asS'ND'
p878
(lp879
I34
aI101
aI71
aI23
aI48
aI132
aI43
aI10
aI38
aI46
aI115
aI122
aI39
aI559
aI84
aI25
aI81
aI9
aI115
aI73
aI68
aI28
aI11
aI167
aI81
aI102
aI31
aI116
aI9
aI8
aI77
aI52
aI52
aI66
aI74
aI82
aI105
asS'NE'
p880
(lp881
I186
aI29
aI32
aI28
aI191
aI11
aI322
aI193
aI146
aI521
aI234
aI19
aI155
aI31
asS'NF'
p882
(lp883
I87
aI132
aI46
asS'NG'
p884
(lp885
I110
aI112
aI117
aI113
aI113
aI114
aI101
aI111
aI118
aI110
aI98
aI178
aI110
aI114
aI89
aI104
aI114
aI155
aI105
aI94
aI106
aI132
aI114
aI111
aI104
aI122
aI126
aI98
aI119
aI84
aI110
aI172
aI113
aI97
aI93
aI96
aI83
aI94
aI134
aI118
aI111
aI119
aI95
aI96
aI101
aI76
aI101
aI90
aI96
aI159
aI89
asS'NY'
p886
(lp887
I112
aI113
aI124
aI140
asS'NR'
p888
(lp889
I146
asS'NS'
p890
(lp891
I41
aI220
aI13
aI13
aI48
aI11
aI14
aI9
aI61
aI18
aI207
aI64
aI21
aI138
aI17
asS'NT'
p892
(lp893
I124
aI129
aI124
aI137
aI616
aI191
aI150
aI137
aI154
aI352
aI153
aI169
aI126
aI135
aI179
aI130
aI114
aI130
aI121
aI356
aI127
aI137
aI234
aI114
aI114
aI137
aI115
aI125
aI115
aI128
aI114
aI117
aI120
asS'NU'
p894
(lp895
I590
aI126
aI212
aI107
aI130
aI124
asS'T\xbe'
p896
(lp897
I770
aI444
asS'T\xbc'
p898
(lp899
I485
aI779
aI593
asS'T\xbd'
p900
(lp901
I621
asS'N '
p902
(lp903
I37
aI280
aI12
aI19
aI15
aI11
aI12
aI42
aI10
aI40
aI106
aI8
aI4849
aI63
aI20
aI9
aI19
aI10
aI217
aI16
aI8
aI26
aI61
aI10
aI241
aI28
aI16
aI84
aI10
aI19
aI16
aI9
aI386
aI23
aI34
aI39
aI9
aI46
aI103
aI18
aI67
aI242
aI22
aI87
aI207
aI45
aI8
aI19
aI18
aI19
aI54
aI52
aI11
aI21
aI33
aI23
aI15
aI43
aI36
aI215
asS'N\x08'
p904
(lp905
I239
asS'\xbc\xbe'
p906
(lp907
I779
asS'A\x08'
p908
(lp909
I565
aI240
aI285
aI289
asS'\xdc\x08'
p910
(lp911
I433
asS'\rE'
p912
(lp913
I98
aI464
aI222
asS'A '
p914
(lp915
I23
aI169
aI239
aI19
aI1641
aI173
aI15
aI24
aI80
aI25
aI11
aI106
aI71
aI15
aI11
aI13
aI20
aI48
aI99
aI10
aI31
aI37
aI10
asS'TY'
p916
(lp917
I111
aI112
aI98
aI409
aI171
aI140
aI282
aI131
aI63
aI82
aI778
aI191
aI105
aI153
aI150
aI53
aI148
aI95
aI122
aI127
asS'TW'
p918
(lp919
I31
aI74
asS'TT'
p920
(lp921
I70
aI76
aI83
aI89
aI84
aI518
aI79
aI71
asS'TU'
p922
(lp923
I200
aI305
aI195
asS'TR'
p924
(lp925
I85
aI389
aI52
aI544
aI46
aI77
aI12
aI8
aI18
aI20
aI45
aI17
aI144
aI22
aI20
aI9
asS'TS'
p926
(lp927
I42
aI191
aI140
aI72
aI175
aI10
aI32
aI47
aI17
aI33
aI27
aI142
aI42
aI55
aI23
aI45
aI39
aI94
aI51
aI10
aI24
aI48
aI9
aI518
aI24
aI10
aI35
aI31
asS'40'
p928
(lp929
I25
asS'HG'
p930
(lp931
I666
asS'TO'
p932
(lp933
I233
aI214
aI157
aI881
aI140
aI171
aI165
aI186
aI117
aI154
aI149
aI148
aI136
aI11
aI133
aI140
aI135
aI231
aI142
aI683
aI148
aI152
aI160
aI173
aI150
aI160
aI394
aI136
aI148
aI131
aI142
aI131
aI144
asS'TL'
p934
(lp935
I174
asS'TH'
p936
(lp937
I160
aI167
aI111
aI113
aI175
aI192
aI206
aI121
aI120
aI168
aI183
aI152
aI145
aI100
aI140
aI166
aI118
aI182
aI132
aI134
aI123
aI115
aI129
aI571
aI173
aI114
aI101
aI169
aI119
aI179
aI160
aI170
aI128
aI140
aI161
aI178
aI189
aI171
aI101
aI144
aI168
aI140
aI136
aI187
aI151
aI114
aI103
aI109
aI177
aI167
aI118
aI139
aI164
aI161
aI98
aI125
aI189
aI164
aI459
aI98
aI135
aI175
aI105
aI136
aI155
aI119
aI156
aI192
aI164
aI171
aI197
aI104
aI158
asS'TI'
p938
(lp939
I172
aI127
aI156
aI145
aI158
aI161
aI336
aI226
aI200
aI136
aI155
aI349
aI177
aI139
aI158
aI173
aI153
aI139
aI146
aI139
aI191
aI197
aI140
aI222
aI184
aI167
aI186
aI129
aI177
aI162
aI176
aI148
aI155
aI127
aI171
aI129
aI152
aI135
aI132
aI109
aI120
aI349
aI239
aI192
aI186
aI131
asS'W\xbd'
p940
(lp941
I367
asS'TE'
p942
(lp943
I242
aI22
aI52
aI1755
aI16
aI10
aI49
aI11
aI74
aI81
aI27
aI23
aI10
aI106
aI308
aI14
aI22
aI25
aI157
aI28
aI43
aI21
aI58
aI38
asS'TB'
p944
(lp945
I226
aI285
asS'TC'
p946
(lp947
I172
asS'4 '
p948
(lp949
I60
aI29
asS'TA'
p950
(lp951
I202
aI554
aI57
aI9
aI141
aI150
aI188
aI71
aI43
aI70
aI25
aI23
aI43
aI59
aI118
aI40
aI130
asS'AC'
p952
(lp953
I216
aI172
aI205
aI217
aI109
aI173
aI115
aI117
aI160
aI190
aI191
asS'AB'
p954
(lp955
I55
aI25
aI81
aI159
aI39
aI147
aI117
aI10
asS'AE'
p956
(lp957
I94
asS'\r '
p958
(lp959
I565
aI1143
asS'AG'
p960
(lp961
I29
aI112
aI33
aI173
aI403
aI153
aI27
asS'AF'
p962
(lp963
I13
asS'AI'
p964
(lp965
I216
aI221
aI232
aI217
aI398
aI130
aI150
aI110
aI27
aI106
aI9
aI130
aI241
asS'AH'
p966
(lp967
I54
asS'AK'
p968
(lp969
I21
aI219
aI20
aI10
aI34
aI10
aI147
aI16
asS'AM'
p970
(lp971
I39
aI280
aI217
aI64
aI25
aI10
asS'AL'
p972
(lp973
I82
aI45
aI214
aI74
aI34
aI235
aI12
aI164
aI33
aI146
aI173
aI125
aI15
aI151
aI18
aI95
aI177
aI40
aI9
aI150
aI182
aI28
aI30
aI125
aI37
aI211
aI199
aI9
aI55
aI124
aI43
aI228
aI56
aI9
aI96
aI17
aI21
aI201
aI201
aI181
aI9
aI252
aI56
aI9
aI205
aI133
asS'AO'
p974
(lp975
I287
asS'AN'
p976
(lp977
I66
aI108
aI179
aI18
aI299
aI21
aI135
aI102
aI96
aI99
aI107
aI46
aI48
aI19
aI16
aI96
aI115
aI8
aI142
aI120
aI90
aI73
aI30
aI16
aI84
aI40
aI105
aI320
aI208
aI67
aI141
aI169
aI17
aI115
aI35
aI179
aI13
aI215
aI119
aI13
aI22
aI51
aI788
aI254
aI242
aI32
aI9
aI10
aI486
aI227
aI116
aI207
aI10
aI141
aI87
aI235
aI9
aI9
aI9
aI10
aI56
aI207
aI195
aI226
aI11
aI10
aI81
aI37
aI147
aI105
asS'AP'
p978
(lp979
I20
asS'AS'
p980
(lp981
I167
aI100
aI79
aI72
aI97
aI176
aI140
aI99
aI75
aI95
aI498
aI174
aI512
aI117
aI139
aI169
aI95
aI124
aI87
aI102
asS'AR'
p982
(lp983
I59
aI20
aI32
aI257
aI23
aI204
aI65
aI56
aI9
aI50
aI164
aI178
aI40
aI33
aI13
aI444
aI9
aI9
aI128
aI46
aI9
aI20
aI42
aI302
aI33
aI30
aI11
aI31
aI93
asS'AU'
p984
(lp985
I32
aI139
aI10
asS'AT'
p986
(lp987
I13
aI226
aI9
aI216
aI198
aI66
aI114
aI223
aI20
aI110
aI225
aI57
aI46
aI52
aI47
aI83
aI278
aI428
aI27
aI218
aI371
aI903
aI186
aI201
aI63
aI25
aI9
aI22
aI9
aI75
aI93
aI497
aI263
aI14
aI8
aI27
aI10
aI147
aI44
aI201
aI8
aI39
aI37
aI30
aI18
aI216
aI126
aI45
aI18
aI54
aI34
aI24
aI45
aI209
aI211
aI53
aI9
aI85
aI40
aI118
aI211
aI283
aI67
aI16
aI201
asS'N\xbe'
p988
(lp989
I204
aI693
asS'AV'
p990
(lp991
I8
aI257
aI109
aI94
aI80
aI41
aI88
aI88
asS'AY'
p992
(lp993
I12
aI9
aI53
aI214
aI203
aI178
aI207
asS'T '
p994
(lp995
I369
aI21
aI598
aI135
aI55
aI86
aI666
aI168
aI126
aI92
aI196
aI70
aI18
aI627
aI63
aI427
aI348
aI95
aI243
aI33
aI137
aI34
aI75
aI44
aI348
aI1615
aI45
aI136
aI64
aI1106
aI153
aI50
aI72
aI71
aI78
aI42
aI115
aI133
aI63
aI38
aI48
aI82
aI57
aI87
aI42
aI83
aI54
aI187
aI702
aI137
aI169
aI90
aI609
aI52
aI41
aI60
aI71
aI90
aI47
aI788
aI113
aI121
aI13
aI50
aI107
aI63
aI114
aI232
aI22
aI789
aI60
aI58
aI61
aI40
aI82
aI74
aI91
aI282
aI19
aI563
aI474
aI48
aI73
aI52
aI50
aI75
aI52
aI55
aI49
aI72
aI541
aI200
aI79
aI63
aI95
aI56
aI639
aI59
aI708
asS'\r\r'
p996
(lp997
I380
aI1313
aI529
asS'T\r'
p998
(lp999
I391
aI318
asS'T\x08'
p1000
(lp1001
I579
aI1129
aI321
aI231
aI334
asS'VK'
p1002
(lp1003
I184
as.