ccollections
defaultdict
p0
(c__builtin__
list
p1
tp2
Rp3
S'BE'
p4
(lp5
I89
aI152
aI87
aI160
aI161
aI168
aI153
aI160
aI161
aI168
aI153
aI160
aI161
aI168
aI153
aI160
aI161
aI168
aI153
asS'WE'
p6
(lp7
I321
aI185
aI112
aI95
aI185
aI112
aI95
aI185
aI112
aI95
aI185
aI112
aI95
aI168
aI168
aI168
aI169
aI169
aI169
aI169
aI169
aI169
aI169
aI169
aI169
aI153
asS'AN'
p8
(lp9
I152
aI88
aI112
aI72
aI88
aI96
aI80
aI32
aI88
aI96
aI80
aI32
aI88
aI8
aI88
aI88
aI105
aI97
aI89
aI1
aI24
aI96
aI80
aI32
aI88
aI8
aI88
aI88
aI105
aI97
aI89
aI1
aI24
aI96
aI80
aI32
aI88
aI8
aI88
aI88
aI105
aI97
aI89
aI1
aI24
aI9
asS'BL'
p10
(lp11
I153
aI56
aI56
aI56
aI56
asS'WN'
p12
(lp13
I81
asS'BO'
p14
(lp15
I17
asS'WI'
p16
(lp17
I33
aI65
aI73
aI48
aI49
aI33
aI48
aI49
aI33
aI40
aI64
aI16
aI48
aI49
aI33
aI40
aI64
aI16
aI48
aI49
aI33
aI40
aI64
aI16
asS'WH'
p18
(lp19
I112
aI113
aI113
aI113
aI113
aI16
aI16
aI16
aI88
aI88
aI88
aI88
aI88
aI88
aI88
aI88
aI88
aI33
asS'BT'
p20
(lp21
I113
asS'BU'
p22
(lp23
I121
aI89
aI129
aI129
aI129
aI129
asS'\x08\x08'
p24
(lp25
I104
aI321
aI305
aI457
aI217
aI816
aI168
aI448
aI696
aI457
aI217
aI816
aI168
aI448
aI696
aI104
aI104
aI128
aI120
aI120
aI457
aI217
aI816
aI168
aI448
aI696
aI104
aI104
aI128
aI120
aI120
aI457
aI217
aI816
aI168
aI448
aI696
aI104
aI104
aI128
aI120
aI120
asS'WS'
p26
(lp27
I144
asS'GN'
p28
(lp29
I71
aI71
aI71
aI71
asS'TA'
p30
(lp31
I153
aI185
aI56
aI73
aI73
aI73
asS'JE'
p32
(lp33
I569
aI505
aI25
asS'BY'
p34
(lp35
I32
aI32
aI32
aI32
asS' B'
p36
(lp37
I209
aI257
aI257
aI129
aI57
aI112
aI169
aI80
aI153
aI97
aI112
aI169
aI80
aI153
aI97
aI112
aI169
aI80
aI153
aI97
aI112
aI169
aI80
aI153
aI97
asS' C'
p38
(lp39
I169
aI64
aI121
aI89
aI217
aI153
aI97
aI89
aI217
aI153
aI97
aI240
aI120
aI240
aI89
aI217
aI153
aI97
aI240
aI120
aI240
aI89
aI217
aI153
aI97
aI240
aI120
aI240
aI80
asS' A'
p40
(lp41
I24
aI112
aI88
aI56
aI120
aI48
aI65
aI161
aI48
aI57
aI97
aI73
aI216
aI57
aI48
aI129
aI1281
aI201
aI344
aI48
aI57
aI97
aI73
aI216
aI57
aI48
aI129
aI1281
aI201
aI344
aI48
aI72
aI48
aI48
aI32
aI73
aI40
aI73
aI193
aI200
aI72
aI145
aI81
aI104
aI72
aI48
aI57
aI97
aI73
aI216
aI57
aI48
aI129
aI1281
aI201
aI344
aI48
aI72
aI48
aI48
aI32
aI73
aI40
aI73
aI193
aI200
aI72
aI145
aI81
aI104
aI72
aI48
aI57
aI97
aI73
aI216
aI57
aI48
aI129
aI1281
aI201
aI344
aI48
aI72
aI48
aI48
aI32
aI73
aI40
aI73
aI193
aI200
aI72
aI145
aI81
aI104
aI72
aI64
aI32
aI616
asS' F'
p42
(lp43
I145
aI137
aI48
aI72
aI145
aI137
aI48
aI72
aI56
aI145
aI137
aI48
aI72
aI56
aI145
aI137
aI48
aI72
aI56
asS' G'
p44
(lp45
I97
aI64
aI64
aI73
aI64
aI73
aI64
aI73
aI96
aI96
aI96
aI160
aI160
aI160
aI160
aI160
aI160
aI160
aI160
aI160
aI129
aI353
asS' D'
p46
(lp47
I144
aI80
aI89
aI168
aI89
aI168
aI89
aI168
aI89
aI168
aI80
aI80
aI80
aI72
asS' E'
p48
(lp49
I80
aI97
aI83
aI160
aI88
aI113
aI160
aI88
aI113
aI160
aI88
aI113
aI80
aI80
aI80
aI57
aI57
aI57
aI57
aI57
aI57
aI57
aI57
aI57
asS' K'
p50
(lp51
I16
asS' H'
p52
(lp53
I72
aI80
aI73
aI160
aI168
aI96
aI64
aI272
aI120
aI184
aI272
aI120
aI184
aI272
aI120
aI184
aI272
aI120
aI184
aI68
aI68
aI68
aI68
aI68
aI68
aI68
aI68
aI68
aI57
asS' I'
p54
(lp55
I128
aI145
aI458
aI81
aI193
aI97
aI193
aI97
aI177
aI169
aI57
aI192
aI105
aI209
aI89
aI193
aI97
aI177
aI169
aI57
aI192
aI105
aI209
aI89
aI193
aI97
aI177
aI169
aI57
aI192
aI105
aI209
aI89
aI112
aI88
aI88
aI88
aI16
aI78
aI78
aI78
aI78
aI78
aI78
aI78
aI78
aI78
aI97
asS' N'
p56
(lp57
I81
aI48
aI96
aI97
aI1032
aI96
aI24
aI56
aI96
aI24
aI56
aI96
aI24
aI56
aI96
aI24
aI56
asS' O'
p58
(lp59
I40
aI80
aI81
aI89
aI265
aI112
aI136
aI201
aI200
aI328
aI185
aI80
aI225
aI241
aI137
aI280
aI288
aI328
aI185
aI80
aI225
aI241
aI137
aI280
aI288
aI376
aI200
aI73
aI328
aI185
aI80
aI225
aI241
aI137
aI280
aI288
aI376
aI200
aI73
aI328
aI185
aI80
aI225
aI241
aI137
aI280
aI288
aI376
aI200
aI73
aI105
aI65
aI65
aI65
aI65
aI65
aI65
aI65
aI65
aI65
aI233
asS' L'
p60
(lp61
I40
aI17
aI24
aI40
aI17
aI24
aI97
aI40
aI17
aI24
aI97
aI40
aI17
aI24
aI97
asS' M'
p62
(lp63
I104
aI88
aI73
aI217
aI152
aI105
aI217
aI152
aI105
aI217
aI152
aI105
aI217
aI152
aI105
aI272
aI16
asS' R'
p64
(lp65
I121
aI144
aI73
aI144
aI73
aI112
aI144
aI73
aI112
aI144
aI73
aI112
asS'RE'
p66
(lp67
I104
aI16
aI48
aI337
aI48
aI144
aI65
aI33
aI48
aI144
aI65
aI33
aI152
aI136
aI121
aI80
aI95
aI144
aI48
aI144
aI65
aI33
aI152
aI136
aI121
aI80
aI95
aI144
aI48
aI144
aI65
aI33
aI152
aI136
aI121
aI80
aI95
aI144
aI72
aI72
aI72
aI145
aI145
aI145
aI145
aI145
aI145
aI145
aI145
aI145
aI129
asS' P'
p68
(lp69
I136
aI272
aI80
aI401
aI112
aI104
aI72
aI56
aI489
aI49
aI73
aI56
aI489
aI49
aI73
aI160
aI56
aI489
aI49
aI73
aI160
aI56
aI489
aI49
aI73
aI160
aI16
asS'E\xbe'
p70
(lp71
I216
asS' V'
p72
(lp73
I273
aI225
aI273
aI225
aI273
aI225
asS' W'
p74
(lp75
I272
aI72
aI40
aI96
aI97
aI73
aI48
aI57
aI497
aI33
aI248
aI536
aI112
aI57
aI57
aI497
aI33
aI248
aI536
aI112
aI57
aI97
aI56
aI73
aI56
aI57
aI497
aI33
aI248
aI536
aI112
aI57
aI97
aI56
aI73
aI56
aI57
aI497
aI33
aI248
aI536
aI112
aI57
aI97
aI56
aI73
aI56
aI56
aI49
aI56
aI49
aI56
aI49
aI162
aI81
aI81
aI73
aI162
aI81
aI81
aI73
aI162
aI81
aI81
aI73
aI162
aI81
aI81
aI73
aI162
aI81
aI81
aI73
aI162
aI81
aI81
aI73
aI162
aI81
aI81
aI73
aI162
aI81
aI81
aI73
aI162
aI81
aI81
aI73
aI121
aI81
aI68
asS' T'
p76
(lp77
I120
aI128
aI120
aI128
aI153
aI177
aI49
aI96
aI41
aI80
aI48
aI63
aI145
aI144
aI104
aI161
aI153
aI168
aI504
aI57
aI80
aI48
aI63
aI145
aI144
aI104
aI161
aI153
aI168
aI504
aI57
aI88
aI72
aI56
aI144
aI83
aI88
aI105
aI105
aI129
aI49
aI72
aI128
aI56
aI80
aI48
aI63
aI145
aI144
aI104
aI161
aI153
aI168
aI504
aI57
aI88
aI72
aI56
aI144
aI83
aI88
aI105
aI105
aI129
aI49
aI72
aI128
aI56
aI80
aI48
aI63
aI145
aI144
aI104
aI161
aI153
aI168
aI504
aI57
aI88
aI72
aI56
aI144
aI83
aI88
aI105
aI105
aI129
aI49
aI72
aI128
aI56
aI128
aI185
aI128
aI185
aI128
aI185
aI248
aI201
aI121
aI121
aI121
aI121
aI121
aI121
aI121
aI121
aI121
aI72
aI80
asS'G '
p78
(lp79
I64
aI40
aI96
aI9
aI65
aI65
aI33
aI41
aI57
aI32
aI9
aI65
aI65
aI33
aI41
aI57
aI32
aI188
aI65
aI9
aI65
aI65
aI33
aI41
aI57
aI32
aI188
aI65
aI9
aI65
aI65
aI33
aI41
aI57
aI32
aI188
aI65
aI193
aI193
aI193
aI57
aI41
aI41
aI41
aI41
aI41
aI41
aI41
aI41
aI41
aI9
asS'RN'
p80
(lp81
I72
aI121
aI121
aI121
aI121
aI72
asS' Y'
p82
(lp83
I16
aI1689
aI81
aI736
aI48
aI536
aI33
aI48
aI41
aI121
aI73
aI376
aI87
aI48
aI41
aI121
aI73
aI376
aI87
aI312
aI65
aI33
aI569
aI48
aI41
aI121
aI73
aI376
aI87
aI312
aI65
aI33
aI569
aI48
aI41
aI121
aI73
aI376
aI87
aI312
aI65
aI33
aI569
aI56
aI56
aI56
aI289
asS'RI'
p84
(lp85
I33
aI72
aI176
aI137
aI193
aI90
aI137
aI193
aI90
aI57
aI137
aI193
aI90
aI57
aI137
aI193
aI90
aI57
asS'RJ'
p86
(lp87
I72
asS'RK'
p88
(lp89
I208
aI16
aI56
aI8
aI17
aI56
aI8
aI17
aI56
aI8
aI17
aI56
aI8
aI17
aI73
aI73
aI73
aI73
aI73
aI73
aI73
aI73
aI73
aI16
asS'GU'
p90
(lp91
I96
aI96
aI96
aI160
aI160
aI160
aI160
aI160
aI160
aI160
aI160
aI160
aI129
aI1
asS'\x08Y'
p92
(lp93
I120
aI120
aI136
aI120
aI136
aI120
aI136
aI121
aI121
aI121
aI121
aI121
aI121
aI121
aI121
aI121
asS'GR'
p94
(lp95
I120
aI120
aI113
aI105
aI120
aI113
aI105
aI120
aI113
aI105
asS'\x08R'
p96
(lp97
I33
aI33
aI33
aI33
aI33
aI33
aI33
aI33
aI33
asS'\x08S'
p98
(lp99
I152
aI152
aI152
asS'\x08W'
p100
(lp101
I1385
aI1385
aI1385
aI1385
asS'IZ'
p102
(lp103
I209
aI32
aI32
aI32
asS'W\x08'
p104
(lp105
I336
aI336
aI336
aI233
aI233
aI233
aI233
aI233
aI233
aI233
aI233
aI233
asS'GG'
p106
(lp107
I73
aI73
aI73
aI73
asS'GE'
p108
(lp109
I160
aI56
aI56
aI56
aI56
asS'R '
p110
(lp111
I153
aI40
aI1
aI64
aI80
aI113
aI2105
aI64
aI145
aI65
aI65
aI24
aI97
aI113
aI9
aI73
aI24
aI64
aI145
aI65
aI65
aI24
aI97
aI113
aI9
aI73
aI24
aI56
aI64
aI145
aI65
aI65
aI24
aI97
aI113
aI9
aI73
aI24
aI56
aI64
aI145
aI65
aI65
aI24
aI97
aI113
aI9
aI73
aI24
aI56
asS'\x08O'
p112
(lp113
I2849
asS'GA'
p114
(lp115
I41
aI41
aI41
asS'\x08M'
p116
(lp117
I8322
aI8322
aI8322
aI8322
asS'\x08C'
p118
(lp119
I96
aI96
aI96
aI96
asS'O '
p120
(lp121
I89
aI112
aI9
aI9
aI97
aI120
aI8
aI113
aI96
aI120
aI8
aI113
aI96
aI40
aI96
aI81
aI120
aI8
aI113
aI96
aI40
aI96
aI81
aI120
aI8
aI113
aI96
aI40
aI96
aI81
aI40
aI8
aI8
aI8
aI33
aI33
aI33
aI33
aI33
aI33
aI33
aI33
aI33
aI17
asS'VI'
p122
(lp123
I48
aI96
aI8
aI480
aI8
aI480
aI8
aI480
aI8
aI480
asS'GI'
p124
(lp125
I73
aI73
aI129
aI73
aI129
aI73
aI129
asS'GH'
p126
(lp127
I1
asS'OO'
p128
(lp129
I88
asS'ON'
p130
(lp131
I112
aI136
aI136
aI16
aI24
aI105
aI32
aI168
aI49
aI121
aI257
aI288
aI105
aI32
aI168
aI49
aI121
aI257
aI288
aI145
aI121
aI160
aI152
aI105
aI32
aI168
aI49
aI121
aI257
aI288
aI145
aI121
aI160
aI152
aI105
aI32
aI168
aI49
aI121
aI257
aI288
aI145
aI121
aI160
aI152
aI184
aI184
aI184
aI241
aI65
aI241
aI65
aI241
aI65
aI241
aI65
aI241
aI65
aI241
aI65
aI241
aI65
aI241
aI65
aI241
aI65
aI49
asS'OM'
p132
(lp133
I16
aI119
aI16
aI119
aI16
aI119
aI16
asS'OL'
p134
(lp135
I112
asS'OK'
p136
(lp137
I105
aI105
aI105
aI105
aI105
aI105
aI105
aI105
aI105
asS'OJ'
p138
(lp139
I113
aI105
asS'OI'
p140
(lp141
I193
aI193
aI193
asS'W '
p142
(lp143
I33
aI49
aI216
aI216
aI216
aI216
asS'OG'
p144
(lp145
I24
aI24
aI24
aI24
asS'OF'
p146
(lp147
I72
aI145
aI57
aI88
aI81
aI41
aI86
aI57
aI88
aI81
aI41
aI86
aI86
aI56
aI57
aI88
aI81
aI41
aI86
aI86
aI56
aI57
aI88
aI81
aI41
aI86
aI86
aI56
aI78
asS'IL'
p148
(lp149
I113
aI121
aI121
aI121
aI113
aI120
aI129
aI97
aI121
aI113
aI120
aI129
aI97
aI104
aI121
aI113
aI120
aI129
aI97
aI104
aI121
aI113
aI120
aI129
aI97
aI104
asS'OD'
p150
(lp151
I16
aI65
asS'OB'
p152
(lp153
I17
asS'ED'
p154
(lp155
I209
aI153
aI129
aI144
aI192
aI129
aI144
aI192
aI120
aI105
aI112
aI129
aI144
aI192
aI120
aI105
aI112
aI129
aI144
aI192
aI120
aI105
aI112
asS'OW'
p156
(lp157
I105
asS'OU'
p158
(lp159
I16
aI33
aI41
aI184
aI24
aI48
aI152
aI160
aI48
aI153
aI49
aI81
aI64
aI129
aI56
aI57
aI16
aI48
aI48
aI153
aI49
aI81
aI64
aI129
aI56
aI57
aI16
aI48
aI64
aI57
aI129
aI17
aI168
aI48
aI153
aI49
aI81
aI64
aI129
aI56
aI57
aI16
aI48
aI64
aI57
aI129
aI17
aI168
aI48
aI153
aI49
aI81
aI64
aI129
aI56
aI57
aI16
aI48
aI64
aI57
aI129
aI17
aI168
aI136
aI136
aI136
aI49
aI49
aI49
aI49
aI49
aI49
aI49
aI49
aI49
aI57
asS'OT'
p160
(lp161
I104
asS'OS'
p162
(lp163
I25
aI24
aI25
aI24
aI144
aI25
aI24
aI144
aI25
aI24
aI144
asS'OR'
p164
(lp165
I40
aI16
aI121
aI40
aI24
aI153
aI65
aI81
aI121
aI40
aI97
aI23
aI49
aI24
aI24
aI153
aI65
aI81
aI121
aI40
aI97
aI23
aI49
aI24
aI56
aI32
aI1
aI24
aI153
aI65
aI81
aI121
aI40
aI97
aI23
aI49
aI24
aI56
aI32
aI1
aI24
aI153
aI65
aI81
aI121
aI40
aI97
aI23
aI49
aI24
aI56
aI32
aI1
aI33
asS'OP'
p166
(lp167
I217
aI120
aI120
aI120
aI41
asS'\tY'
p168
(lp169
I2970
aI2970
aI2970
aI2970
asS'FF'
p170
(lp171
I169
aI169
aI153
aI169
aI153
aI169
aI153
aI185
aI185
aI185
aI88
aI88
aI88
aI88
aI88
aI88
aI88
aI88
aI88
aI145
asS'M '
p172
(lp173
I104
aI352
asS'RC'
p174
(lp175
I184
aI184
aI184
asS'IO'
p176
(lp177
I160
aI121
aI121
aI145
aI121
aI160
aI152
aI121
aI145
aI121
aI160
aI152
aI121
aI145
aI121
aI160
aI152
asS'HT'
p178
(lp179
I25
aI68
aI68
aI68
aI68
aI68
aI68
aI68
aI68
aI68
asS'\tI'
p180
(lp181
I5053
asS'\tH'
p182
(lp183
I841
aI625
aI625
aI625
aI625
aI625
aI625
aI625
aI625
aI625
aI1097
asS'HI'
p184
(lp185
I233
aI129
aI113
aI153
aI17
aI113
aI153
aI17
aI113
aI153
aI17
aI113
aI153
aI17
aI1097
asS'HO'
p186
(lp187
I144
aI144
aI144
aI41
asS'\xbe '
p188
(lp189
I457
aI232
aI128
aI97
aI128
aI97
aI128
aI97
aI128
aI97
asS'HA'
p190
(lp191
I40
aI64
aI8
aI160
aI168
aI65
aI41
aI8
aI33
aI120
aI184
aI33
aI120
aI184
aI56
aI49
aI48
aI41
aI33
aI120
aI184
aI56
aI49
aI48
aI41
aI33
aI120
aI184
aI56
aI49
aI48
aI41
aI24
aI56
aI24
aI56
aI24
aI56
aI74
aI80
aI74
aI80
aI74
aI80
aI74
aI80
aI74
aI80
aI74
aI80
aI74
aI80
aI74
aI80
aI74
aI80
aI8
aI56
aI145
asS'U '
p192
(lp193
I16
aI33
aI24
aI48
aI48
aI9
aI16
aI48
aI48
aI9
aI16
aI48
aI64
aI57
aI49
aI17
aI48
aI48
aI9
aI16
aI48
aI64
aI57
aI49
aI17
aI48
aI48
aI9
aI16
aI48
aI64
aI57
aI49
aI17
aI48
aI24
aI24
aI24
aI49
aI49
aI49
aI49
aI49
aI49
aI49
aI49
aI49
aI57
asS'HE'
p194
(lp195
I144
aI80
aI120
aI105
aI209
aI82
aI59
aI39
aI56
aI24
aI87
aI82
aI59
aI39
aI56
aI24
aI87
aI128
aI73
aI97
aI23
aI89
aI24
aI82
aI59
aI39
aI56
aI24
aI87
aI128
aI73
aI97
aI23
aI89
aI24
aI82
aI59
aI39
aI56
aI24
aI87
aI128
aI73
aI97
aI23
aI89
aI24
aI48
aI8
aI48
aI8
aI48
aI8
aI73
aI17
aI32
aI33
aI33
aI33
aI33
aI33
aI33
aI33
aI33
aI33
aI145
asS'PR'
p196
(lp197
I81
aI256
aI305
aI41
aI56
asS'KS'
p198
(lp199
I265
aI265
aI265
aI265
asS'\xbdP'
p200
(lp201
I193
asS'PU'
p202
(lp203
I401
aI120
aI73
aI120
aI73
aI120
aI73
aI120
aI73
asS'DE'
p204
(lp205
I96
asS'M\x08'
p206
(lp207
I443
aI443
aI443
aI443
asS'PA'
p208
(lp209
I80
aI48
aI192
aI112
aI65
aI81
aI49
aI81
aI49
aI81
aI49
aI81
aI49
aI9
asS'U\x08'
p210
(lp211
I232
aI232
aI232
asS'PE'
p212
(lp213
I128
aI128
aI128
aI128
aI137
asS'PI'
p214
(lp215
I208
asS'PO'
p216
(lp217
I88
aI400
aI88
aI400
aI88
aI400
aI88
aI400
asS'PL'
p218
(lp219
I128
aI105
aI113
aI128
aI105
aI113
aI128
aI105
aI113
asS'EM'
p220
(lp221
I49
aI49
aI49
aI49
asS'EL'
p222
(lp223
I72
aI72
aI72
aI64
aI64
aI64
aI24
aI90
aI48
aI41
aI41
aI41
aI41
aI41
aI41
aI41
aI41
aI41
asS'EN'
p224
(lp225
I16
aI152
aI48
aI16
aI48
aI16
aI16
aI128
aI24
aI49
aI113
aI65
aI57
aI48
aI16
aI16
aI128
aI24
aI49
aI113
aI65
aI57
aI48
aI16
aI16
aI128
aI24
aI49
aI113
aI65
aI57
asS'EI'
p226
(lp227
I144
aI144
aI161
aI144
aI161
aI144
aI161
aI144
aI161
asS'Y '
p228
(lp229
I184
aI57
aI25
aI168
aI40
aI9
aI8
aI40
aI57
aI89
aI25
aI40
aI57
aI89
aI25
aI112
aI65
aI1
aI161
aI152
aI48
aI16
aI40
aI57
aI89
aI25
aI112
aI65
aI1
aI161
aI152
aI48
aI16
aI40
aI57
aI89
aI25
aI112
aI65
aI1
aI161
aI152
aI48
aI16
aI41
asS'RU'
p230
(lp231
I9
aI64
aI185
aI9
aI64
aI185
aI9
aI64
aI185
asS'EE'
p232
(lp233
I88
aI120
aI137
aI88
aI168
aI121
aI105
aI168
aI121
aI105
aI168
aI121
aI105
asS'ZE'
p234
(lp235
I113
aI217
aI217
aI217
asS'EF'
p236
(lp237
I129
aI113
asS'EA'
p238
(lp239
I81
aI48
aI65
aI88
aI65
aI88
aI112
aI65
aI88
aI112
aI65
aI88
aI112
asS'EC'
p240
(lp241
I193
aI137
aI97
aI161
aI113
aI161
aI113
aI160
aI161
aI113
aI160
aI161
aI113
aI160
asS'IT'
p242
(lp243
I129
aI777
aI0
aI25
aI64
aI30
aI57
aI80
aI25
aI64
aI30
aI57
aI80
aI128
aI25
aI104
aI25
aI64
aI30
aI57
aI80
aI128
aI25
aI104
aI25
aI64
aI30
aI57
aI80
aI128
aI25
aI104
asS' S'
p244
(lp245
I194
aI57
aI200
aI56
aI80
aI57
aI200
aI56
aI80
aI48
aI225
aI65
aI177
aI97
aI57
aI200
aI56
aI80
aI48
aI225
aI65
aI177
aI97
aI57
aI200
aI56
aI80
aI48
aI225
aI65
aI177
aI97
aI152
aI56
aI56
aI56
aI10
aI10
aI10
aI10
aI10
aI10
aI10
aI10
aI10
aI48
aI97
asS'P '
p246
(lp247
I57
aI33
aI17
asS'RP'
p248
(lp249
I276
aI400
aI276
aI400
aI276
aI400
aI276
aI400
asS'EW'
p250
(lp251
I120
aI97
asS'EV'
p252
(lp253
I112
aI89
aI224
aI81
aI345
aI81
aI345
aI81
aI345
aI96
aI96
aI96
aI105
aI105
aI105
aI105
aI105
aI105
aI105
aI105
aI105
asS'EP'
p254
(lp255
I137
asS'ES'
p256
(lp257
I104
aI153
aI120
aI105
aI145
aI97
aI120
aI105
aI145
aI97
aI120
aI105
aI145
aI97
aI120
aI105
aI145
aI97
aI112
asS'ER'
p258
(lp259
I200
aI80
aI137
aI249
aI144
aI32
aI128
aI128
aI217
aI128
aI217
aI128
aI217
aI32
aI168
aI32
aI168
aI32
aI168
aI72
aI65
aI169
aI65
aI169
aI65
aI169
aI65
aI169
aI65
aI169
aI65
aI169
aI65
aI169
aI65
aI169
aI65
aI169
aI153
asS'ME'
p260
(lp261
I192
aI192
aI192
aI16
aI32
asS'E '
p262
(lp263
I72
aI120
aI1
aI41
aI25
aI105
aI168
aI193
aI96
aI128
aI160
aI40
aI8
aI59
aI145
aI39
aI185
aI161
aI18605
aI56
aI48
aI168
aI51
aI168
aI25
aI65
aI56
aI65
aI160
aI40
aI8
aI59
aI145
aI39
aI185
aI161
aI18605
aI56
aI48
aI168
aI51
aI168
aI25
aI65
aI56
aI65
aI152
aI128
aI73
aI152
aI80
aI97
aI73
aI113
aI49
aI89
aI80
aI95
aI16
aI24
aI232
aI73
aI160
aI40
aI8
aI59
aI145
aI39
aI185
aI161
aI18605
aI56
aI48
aI168
aI51
aI168
aI25
aI65
aI56
aI65
aI152
aI128
aI73
aI152
aI80
aI97
aI73
aI113
aI49
aI89
aI80
aI95
aI16
aI24
aI232
aI73
aI160
aI40
aI8
aI59
aI145
aI39
aI185
aI161
aI18605
aI56
aI48
aI168
aI51
aI168
aI25
aI65
aI56
aI65
aI152
aI128
aI73
aI152
aI80
aI97
aI73
aI113
aI49
aI89
aI80
aI95
aI16
aI24
aI232
aI73
aI16
aI8
aI16
aI8
aI16
aI8
aI73
aI120
aI145
aI120
aI145
aI120
aI145
aI120
aI145
aI120
aI145
aI120
aI145
aI120
aI145
aI120
aI145
aI120
aI145
aI145
aI129
asS'MF'
p264
(lp265
I80
aI80
aI80
asS'UY'
p266
(lp267
I128
aI128
aI128
aI176
aI176
aI176
aI176
aI176
aI176
aI176
aI176
aI176
aI113
aI169
asS'MM'
p268
(lp269
I113
aI113
aI113
asS'UT'
p270
(lp271
I121
aI33
aI33
aI33
aI33
asS'MO'
p272
(lp273
I89
aI152
aI89
aI152
aI120
aI89
aI152
aI120
aI89
aI152
aI120
asS'RS'
p274
(lp275
I233
aI177
aI105
aI105
aI105
asS'UP'
p276
(lp277
I112
asS'US'
p278
(lp279
I177
aI8
aI24
aI16
aI16
aI257
aI129
aI257
aI129
aI257
aI129
aI257
aI129
asS'UR'
p280
(lp281
I64
aI289
aI233
aI8
aI25
aI65
aI81
aI8
aI64
aI56
aI73
aI56
aI8
aI25
aI65
aI81
aI8
aI64
aI56
aI73
aI56
aI48
aI8
aI8
aI25
aI65
aI81
aI8
aI64
aI56
aI73
aI56
aI48
aI8
aI8
aI25
aI65
aI81
aI8
aI64
aI56
aI73
aI56
aI48
aI8
asS'MU'
p282
(lp283
I177
aI112
aI121
asS'UL'
p284
(lp285
I209
aI97
aI97
aI97
aI97
aI97
asS'UN'
p286
(lp287
I208
aI105
aI105
aI105
asS'UI'
p288
(lp289
I649
aI649
aI649
asS'MP'
p290
(lp291
I119
aI119
aI119
asS'MS'
p292
(lp293
I81
aI81
aI81
aI81
aI224
asS'RD'
p294
(lp295
I105
asS'UE'
p296
(lp297
I32
aI17
aI32
aI17
aI32
aI17
asS'UD'
p298
(lp299
I41
aI41
aI41
asS'H '
p300
(lp301
I24
aI40
aI25
aI48
aI40
aI40
aI25
aI48
aI40
aI40
aI25
aI48
aI40
asS'UF'
p302
(lp303
I48
aI48
aI48
aI41
aI41
aI41
aI41
aI41
aI41
aI41
aI41
aI41
aI57
asS'MY'
p304
(lp305
I113
asS'UC'
p306
(lp307
I65
aI41
aI185
aI40
aI40
aI65
aI41
aI185
aI40
aI40
aI65
aI41
aI185
aI40
aI40
asS'N\xbd'
p308
(lp309
I176
asS'K '
p310
(lp311
I64
aI113
aI33
aI112
aI105
aI33
aI25
aI48
aI65
aI105
aI33
aI25
aI48
aI65
aI105
aI33
aI25
aI48
aI65
aI105
aI33
aI25
aI48
aI65
asS'FU'
p312
(lp313
I49
asS'AV'
p314
(lp315
I48
aI112
aI112
aI72
aI112
aI72
aI112
aI72
asS'RY'
p316
(lp317
I65
aI32
aI32
aI32
aI32
aI65
aI65
aI65
aI65
aI65
aI65
aI65
aI65
aI65
asS'IA'
p318
(lp319
I24
aI24
aI24
aI240
asS'FE'
p320
(lp321
I152
aI152
aI152
asS'\xbc '
p322
(lp323
I80
aI57
aI57
aI57
aI96
aI96
aI96
aI97
aI97
aI97
aI97
aI97
aI97
aI97
aI97
aI97
asS'ET'
p324
(lp325
I424
aI58
aI97
aI64
aI41
aI97
aI64
aI41
aI11106
aI136
aI97
aI64
aI41
aI11106
aI136
aI97
aI64
aI41
aI11106
aI136
asS'S '
p326
(lp327
I24
aI81
aI177
aI232
aI4241
aI56
aI24
aI64
aI129
aI145
aI65
aI56
aI24
aI64
aI129
aI145
aI65
aI40
aI48
aI81
aI121
aI56
aI24
aI64
aI129
aI145
aI65
aI40
aI48
aI81
aI121
aI56
aI24
aI64
aI129
aI145
aI65
aI40
aI48
aI81
aI121
aI96
aI86
aI96
aI86
aI96
aI86
aI104
aI17
aI32
aI17
aI32
aI17
aI32
aI17
aI32
aI17
aI32
aI17
aI32
aI17
aI32
aI17
aI32
aI17
aI32
aI193
aI9
aI104
asS'MA'
p328
(lp329
I16
aI193
aI16
aI193
aI16
aI193
aI16
aI193
asS'FO'
p330
(lp331
I24
aI153
aI123
aI121
aI40
aI72
aI153
aI123
aI121
aI40
aI72
aI97
aI48
aI153
aI123
aI121
aI40
aI72
aI97
aI48
aI153
aI123
aI121
aI40
aI72
aI97
aI48
asS'IS'
p332
(lp333
I9
aI73
aI9
aI73
aI9
aI73
aI9
aI73
aI96
aI96
aI96
aI78
aI78
aI78
aI78
aI78
aI78
aI78
aI78
aI78
aI97
asS'NI'
p334
(lp335
I105
aI168
aI169
aI105
aI168
aI169
aI105
aI105
aI168
aI169
aI105
aI105
aI168
aI169
aI105
asS'NK'
p336
(lp337
I40
aI49
aI40
aI49
aI40
aI49
aI40
aI49
asS'NL'
p338
(lp339
I57
aI32
aI48
aI48
aI48
aI48
asS'NN'
p340
(lp341
I113
aI113
aI72
aI113
aI72
aI113
aI72
asS'NO'
p342
(lp343
I136
aI105
asS'NA'
p344
(lp345
I73
aI73
aI73
aI73
asS'NC'
p346
(lp347
I48
aI48
aI113
aI48
aI113
aI48
aI113
asS'ND'
p348
(lp349
I88
aI88
aI80
aI97
aI65
aI73
aI73
aI65
aI73
aI73
aI88
aI102
aI48
aI73
aI89
aI65
aI73
aI73
aI88
aI102
aI48
aI73
aI89
aI65
aI73
aI73
aI88
aI102
aI48
aI73
aI89
aI96
asS'NE'
p350
(lp351
I64
aI249
aI24
aI25
aI17
aI24
aI65
aI169
aI57
aI17
aI24
aI65
aI169
aI57
aI32
aI17
aI24
aI65
aI169
aI57
aI32
aI17
aI24
aI65
aI169
aI57
aI32
aI40
aI40
aI40
aI9
aI9
aI9
aI9
aI9
aI9
aI9
aI9
aI9
asS'NG'
p352
(lp353
I64
aI40
aI153
aI9
aI9
aI65
aI33
aI33
aI57
aI32
aI9
aI9
aI65
aI33
aI33
aI57
aI32
aI64
aI105
aI9
aI9
aI65
aI33
aI33
aI57
aI32
aI64
aI105
aI9
aI9
aI65
aI33
aI33
aI57
aI32
aI64
aI105
aI72
aI72
aI72
aI57
aI48
aI48
aI48
aI48
aI48
aI48
aI48
aI48
aI48
aI17
asS'NY'
p354
(lp355
I161
aI120
aI161
aI120
aI161
aI120
asS'S\x08'
p356
(lp357
I1056
asS'IG'
p358
(lp359
I41
aI129
aI129
aI129
aI129
asS'NR'
p360
(lp361
I208
asS'NS'
p362
(lp363
I32
aI65
aI32
aI65
aI8
aI24
aI32
aI1
aI33
aI25
aI88
aI32
aI65
aI8
aI24
aI32
aI1
aI33
aI25
aI88
aI32
aI65
aI8
aI24
aI32
aI1
aI33
aI25
aI88
asS'NT'
p364
(lp365
I8
aI81
aI32
aI81
aI32
aI81
aI81
aI113
aI32
aI81
aI81
aI113
aI32
aI81
aI81
aI113
aI169
asS'NU'
p366
(lp367
I104
aI105
aI128
aI104
aI105
aI128
aI104
aI105
aI128
asS'RA'
p368
(lp369
I88
aI88
aI88
aI88
asS'CK'
p370
(lp371
I41
aI88
aI64
aI55
aI80
aI64
aI65
aI49
aI72
aI0
aI65
aI49
aI72
aI0
aI65
aI49
aI72
aI0
aI65
aI49
aI72
aI0
asS'CI'
p372
(lp373
I152
aI104
aI25
aI32
aI137
aI137
aI137
aI137
asS'CH'
p374
(lp375
I32
aI41
aI41
aI41
aI41
aI41
aI41
asS'CO'
p376
(lp377
I40
aI49
aI257
aI49
aI257
aI16
aI119
aI49
aI257
aI16
aI119
aI49
aI257
aI16
aI119
aI16
asS'CM'
p378
(lp379
I120
aI120
aI120
asS'CL'
p380
(lp381
I113
aI113
aI113
asS'N '
p382
(lp383
I40
aI32
aI73
aI72
aI16
aI152
aI24
aI8
aI113
aI41
aI17
aI128
aI8
aI113
aI41
aI17
aI128
aI8
aI9
aI8
aI113
aI41
aI17
aI128
aI8
aI9
aI8
aI113
aI41
aI17
aI128
aI8
aI9
aI8
aI49
asS'CA'
p384
(lp385
I152
aI72
asS' U'
p386
(lp387
I81
aI161
aI257
aI257
aI257
aI257
aI112
asS'CE'
p388
(lp389
I128
aI136
aI161
aI136
aI161
aI136
aI161
aI136
aI161
asS'RG'
p390
(lp391
I105
aI105
aI105
asS'WO'
p392
(lp393
I24
aI24
aI72
aI49
aI41
aI72
aI49
aI41
aI72
aI49
aI41
aI72
aI49
aI41
aI41
aI41
aI41
aI41
aI41
aI41
aI41
aI41
aI41
aI57
asS'CR'
p394
(lp395
I113
aI113
aI113
aI113
asS'L '
p396
(lp397
I208
aI73
aI104
aI16
aI25
aI9
aI16
aI25
aI9
aI9
aI96
aI16
aI25
aI9
aI9
aI96
aI16
aI25
aI9
aI9
aI96
aI65
asS'\x08 '
p398
(lp399
I600
asS'CU'
p400
(lp401
I25
aI33
aI25
aI33
aI32
aI25
aI33
aI32
aI25
aI33
aI32
asS'CT'
p402
(lp403
I161
aI200
aI137
aI121
aI104
aI177
aI152
aI104
aI177
aI152
aI112
aI145
aI129
aI192
aI104
aI177
aI152
aI112
aI145
aI129
aI192
aI104
aI177
aI152
aI112
aI145
aI129
aI192
asS'N\x08'
p404
(lp405
I296
aI296
aI296
asS'SY'
p406
(lp407
I8
aI8
aI8
aI8
asS'RO'
p408
(lp409
I16
aI96
asS'KE'
p410
(lp411
I200
aI121
aI144
aI16
aI81
aI16
aI81
aI33
aI16
aI81
aI33
aI16
aI81
aI33
asS'SS'
p412
(lp413
I113
aI112
aI112
aI112
aI112
aI112
asS'KI'
p414
(lp415
I168
aI192
aI192
aI192
aI192
aI161
aI161
aI161
aI161
aI161
aI161
aI161
aI161
aI161
aI185
asS'SU'
p416
(lp417
I17
aI17
aI152
aI177
aI32
aI17
aI152
aI177
aI32
aI17
aI152
aI177
aI32
asS'ST'
p418
(lp419
I145
aI40
aI144
aI96
aI72
aI72
aI81
aI88
aI73
aI80
aI72
aI81
aI88
aI73
aI80
aI72
aI81
aI88
aI73
aI80
aI112
aI112
aI112
aI81
aI81
aI81
aI81
aI81
aI81
aI81
aI81
aI81
aI128
asS'SK'
p420
(lp421
I64
aI64
aI64
asS'SI'
p422
(lp423
I33
aI33
aI33
aI33
asS'SH'
p424
(lp425
I233
asS'SO'
p426
(lp427
I49
aI48
aI104
aI48
aI104
aI48
aI104
aI48
aI104
aI40
aI849
aI17
asS'SL'
p428
(lp429
I64
asS'SA'
p430
(lp431
I104
aI104
aI104
asS'SE'
p432
(lp433
I168
aI96
aI145
aI89
aI168
aI169
aI81
aI56
aI96
aI145
aI89
aI168
aI169
aI81
aI56
aI152
aI89
aI96
aI145
aI89
aI168
aI169
aI81
aI56
aI152
aI89
aI96
aI145
aI89
aI168
aI169
aI81
aI56
aI152
aI89
aI80
asS'DN'
p434
(lp435
I56
asS'DO'
p436
(lp437
I72
aI72
aI72
asS'S\xbe'
p438
(lp439
I145
aI145
aI160
aI145
aI160
aI145
aI160
asS'YO'
p440
(lp441
I137
aI161
aI129
aI184
aI136
aI169
aI152
aI160
aI153
aI137
aI160
aI129
aI137
aI136
aI120
aI160
aI153
aI137
aI160
aI129
aI137
aI136
aI120
aI144
aI136
aI129
aI151
aI168
aI160
aI153
aI137
aI160
aI129
aI137
aI136
aI120
aI144
aI136
aI129
aI151
aI168
aI160
aI153
aI137
aI160
aI129
aI137
aI136
aI120
aI144
aI136
aI129
aI151
aI168
aI184
aI136
aI184
aI136
aI184
aI136
aI241
aI137
aI241
aI137
aI241
aI137
aI241
aI137
aI241
aI137
aI241
aI137
aI241
aI137
aI241
aI137
aI241
aI137
aI121
asS'S\xbc'
p442
(lp443
I97
aI97
aI97
asS'A\x08'
p444
(lp445
I464
aI464
aI464
aI464
asS'RF'
p446
(lp447
I137
aI137
aI137
aI137
asS'YB'
p448
(lp449
I320
asS'K\x08'
p450
(lp451
I384
aI384
aI384
aI384
aI361
aI361
aI361
aI361
aI361
aI361
aI361
aI361
aI361
asS'DA'
p452
(lp453
I120
aI72
aI65
aI216
aI65
aI216
aI65
aI216
aI65
aI216
asS'I\x08'
p454
(lp455
I304
aI304
aI304
aI304
asS'CC'
p456
(lp457
I80
aI120
aI120
aI120
aI120
asS'DY'
p458
(lp459
I41
asS'YP'
p460
(lp461
I73
asS'YS'
p462
(lp463
I41
aI41
aI41
aI41
aI32
aI32
aI32
aI40
aI176
aI176
aI176
aI176
aI176
aI176
aI176
aI176
aI176
aI57
aI233
asS'DU'
p464
(lp465
I8
asS'K\xbe'
p466
(lp467
I248
asS'E\xbc'
p468
(lp469
I136
aI528
aI528
aI528
aI113
aI113
aI113
aI113
aI113
aI113
aI113
aI113
aI113
asS'LF'
p470
(lp471
I33
asS'A '
p472
(lp473
I112
aI48
aI48
asS'LE'
p474
(lp475
I65
aI40
aI65
aI40
aI49
aI65
aI40
aI49
aI65
aI40
aI49
asS'TY'
p476
(lp477
I16
aI25
aI25
aI112
aI24
aI25
aI112
aI24
aI25
aI112
aI24
aI1
asS'TW'
p478
(lp479
I64
aI56
aI97
aI64
aI56
aI97
aI64
aI56
aI97
aI64
aI56
aI97
asS'LL'
p480
(lp481
I72
aI72
aI81
aI89
aI88
aI89
aI98
aI88
aI89
aI98
aI103
aI88
aI88
aI89
aI98
aI103
aI88
aI88
aI89
aI98
aI103
aI88
aI80
aI80
aI80
aI73
aI97
aI88
aI89
aI89
aI89
aI89
aI89
aI89
aI89
aI89
aI89
asS'TU'
p482
(lp483
I8
aI8
aI8
aI72
aI72
aI72
aI32
aI32
aI32
aI32
aI32
aI32
aI32
aI32
aI32
aI41
asS'TR'
p484
(lp485
I88
aI73
aI73
aI80
aI81
aI89
aI73
aI80
aI81
aI89
aI73
aI80
aI81
aI89
asS'TS'
p486
(lp487
I113
aI80
asS'LI'
p488
(lp489
I209
aI153
aI81
aI81
aI80
aI81
aI81
aI80
aI81
aI81
aI80
aI81
aI81
aI80
asS'TO'
p490
(lp491
I89
aI112
aI57
aI97
aI120
aI65
aI32
aI113
aI96
aI120
aI65
aI32
aI113
aI96
aI11106
aI96
aI81
aI120
aI65
aI32
aI113
aI96
aI11106
aI96
aI81
aI120
aI65
aI32
aI113
aI96
aI11106
aI96
aI81
asS'LT'
p492
(lp493
I1
aI1
aI1
aI1
asS'LU'
p494
(lp495
I25
aI25
aI25
asS'TH'
p496
(lp497
I424
aI128
aI177
aI41
aI104
aI89
aI64
aI18
aI79
aI144
aI104
aI81
aI153
aI16
aI64
aI18
aI79
aI144
aI104
aI81
aI153
aI16
aI72
aI16
aI65
aI144
aI128
aI8
aI49
aI57
aI129
aI97
aI41
aI89
aI48
aI64
aI18
aI79
aI144
aI104
aI81
aI153
aI16
aI72
aI16
aI65
aI144
aI128
aI8
aI49
aI57
aI129
aI97
aI41
aI89
aI48
aI64
aI18
aI79
aI144
aI104
aI81
aI153
aI16
aI72
aI16
aI65
aI144
aI128
aI8
aI49
aI57
aI129
aI97
aI41
aI89
aI48
aI128
aI97
aI128
aI97
aI128
aI97
aI248
aI80
aI80
aI80
aI80
aI80
aI80
aI80
aI80
aI80
aI72
aI80
asS'TI'
p498
(lp499
I169
aI64
aI113
aI185
aI16
aI64
aI16
aI33
aI177
aI152
aI8
aI185
aI16
aI64
aI16
aI33
aI177
aI152
aI8
aI8
aI9
aI192
aI185
aI16
aI64
aI16
aI33
aI177
aI152
aI8
aI8
aI9
aI192
aI185
aI16
aI64
aI16
aI33
aI177
aI152
aI8
aI8
aI9
aI192
asS'I '
p500
(lp501
I929
aI553
aI929
aI553
aI929
aI553
aI929
aI553
aI5053
aI25
aI1
asS'TE'
p502
(lp503
I120
aI137
aI32
aI64
aI49
aI49
aI72
aI40
aI49
aI72
aI40
aI49
aI72
aI40
aI96
aI120
aI120
aI120
aI120
aI120
aI120
aI120
aI120
aI120
asS'LY'
p504
(lp505
I184
aI168
aI73
aI120
aI152
aI96
aI104
aI152
aI96
aI104
aI152
aI96
aI104
aI81
asS'VA'
p506
(lp507
I64
aI64
aI64
aI64
asS'AC'
p508
(lp509
I64
aI129
aI104
aI105
aI89
aI89
aI177
aI104
aI112
aI105
aI97
aI96
aI89
aI56
aI112
aI105
aI97
aI96
aI89
aI56
aI112
aI105
aI97
aI96
aI89
aI56
aI112
aI105
aI97
aI96
aI89
aI56
asS'AB'
p510
(lp511
I168
aI105
aI168
aI105
aI168
aI105
aI168
aI105
asS'VE'
p512
(lp513
I72
aI133
aI128
aI64
aI64
aI128
aI73
aI129
aI73
aI81
aI81
aI64
aI128
aI73
aI129
aI73
aI81
aI81
aI64
aI128
aI73
aI129
aI73
aI81
aI81
aI121
aI121
aI121
aI153
aI153
aI153
aI153
aI153
aI153
aI153
aI153
aI153
asS'AG'
p514
(lp515
I96
aI89
aI113
aI81
aI89
aI113
aI81
aI89
aI113
aI81
asS'AF'
p516
(lp517
I152
aI145
aI152
aI145
aI152
aI145
asS'AI'
p518
(lp519
I33
aI33
aI33
aI33
aI33
asS'IP'
p520
(lp521
I96
aI257
aI73
aI89
aI89
aI89
aI89
asS'AK'
p522
(lp523
I136
aI136
aI136
aI136
asS'IR'
p524
(lp525
I112
asS'AM'
p526
(lp527
I8
aI352
aI352
aI352
aI352
aI40
aI80
asS'AL'
p528
(lp529
I16
aI56
aI56
aI56
asS'IV'
p530
(lp531
I144
aI8
aI48
aI480
aI8
aI48
aI480
aI129
aI8
aI48
aI480
aI129
aI8
aI48
aI480
aI129
asS'AS'
p532
(lp533
I88
aI56
aI56
aI208
aI89
aI56
aI208
aI89
aI56
aI208
aI89
asS'AR'
p534
(lp535
I80
aI192
aI112
aI144
aI81
aI65
aI81
aI65
aI97
aI81
aI81
aI65
aI97
aI81
aI81
aI65
aI97
aI81
aI145
asS'IM'
p536
(lp537
I209
aI209
aI209
asS'AT'
p538
(lp539
I57
aI16
aI0
aI25
aI1
aI41
aI32
aI1
aI41
aI32
aI32
aI88
aI49
aI33
aI65
aI8
aI1
aI41
aI32
aI32
aI88
aI49
aI33
aI65
aI8
aI1
aI41
aI32
aI32
aI88
aI49
aI33
aI65
aI8
aI81
aI80
aI81
aI80
aI81
aI80
aI80
aI89
aI80
aI89
aI80
aI89
aI80
aI89
aI80
aI89
aI80
aI89
aI80
aI89
aI80
aI89
aI80
aI89
aI80
aI97
aI64
asS'AW'
p540
(lp541
I96
asS'IN'
p542
(lp543
I40
aI128
aI145
aI33
aI16
aI168
aI81
aI128
aI185
aI9
aI41
aI42
aI32
aI97
aI33
aI33
aI81
aI136
aI32
aI80
aI81
aI128
aI185
aI9
aI41
aI42
aI32
aI97
aI33
aI33
aI81
aI136
aI32
aI80
aI48
aI24
aI8
aI57
aI192
aI105
aI89
aI81
aI128
aI185
aI9
aI41
aI42
aI32
aI97
aI33
aI33
aI81
aI136
aI32
aI80
aI48
aI24
aI8
aI57
aI192
aI105
aI89
aI81
aI128
aI185
aI9
aI41
aI42
aI32
aI97
aI33
aI33
aI81
aI136
aI32
aI80
aI48
aI24
aI8
aI57
aI192
aI105
aI89
aI193
aI193
aI193
aI57
aI48
aI48
aI48
aI48
aI48
aI48
aI48
aI48
aI48
aI17
asS'AY'
p544
(lp545
I8
aI33
aI216
aI193
aI33
aI216
aI193
aI33
aI216
aI193
aI33
aI216
aI193
asS'IC'
p546
(lp547
I152
aI72
aI297
aI217
aI136
aI137
aI137
aI137
aI137
asS'\x08U'
p548
(lp549
I264
aI264
aI264
asS'IE'
p550
(lp551
I154
asS'ID'
p552
(lp553
I160
aI49
asS'T '
p554
(lp555
I176
aI81
aI8
aI145
aI58
aI72
aI49
aI865
aI1
aI25
aI0
aI1
aI185
aI81
aI0
aI1
aI185
aI81
aI32
aI1
aI32
aI49
aI9
aI33
aI65
aI0
aI1
aI185
aI81
aI32
aI1
aI32
aI49
aI9
aI33
aI65
aI0
aI1
aI185
aI81
aI32
aI1
aI32
aI49
aI9
aI33
aI65
aI88
aI80
aI88
aI80
aI88
aI80
aI8
aI89
aI72
aI89
aI72
aI89
aI72
aI89
aI72
aI89
aI72
aI89
aI72
aI89
aI72
aI89
aI72
aI89
aI72
aI97
aI64
asS'IF'
p556
(lp557
I89
aI89
aI89
asS'RT'
p558
(lp559
I169
aI176
aI112
aI97
aI97
aI112
aI97
aI112
aI97
aI112
asS'Y\xbe'
p560
(lp561
I168
aI185
aI185
aI185
aI185
asS'UA'
p562
(lp563
I50
asS'LA'
p564
(lp565
I24
aI24
aI48
aI24
aI48
aI24
aI48
asS'D '
p566
(lp567
I40
aI9
aI80
aI8
aI97
aI65
aI73
aI57
aI73
aI65
aI73
aI57
aI73
aI8
aI0
aI102
aI73
aI113
aI88
aI65
aI73
aI57
aI73
aI8
aI0
aI102
aI73
aI113
aI88
aI65
aI73
aI57
aI73
aI8
aI0
aI102
aI73
aI113
aI88
aI96
aI193
asS'F '
p568
(lp569
I72
aI145
aI51
aI88
aI81
aI169
aI87
aI51
aI88
aI81
aI169
aI87
aI86
aI56
aI105
aI89
aI51
aI88
aI81
aI169
aI87
aI86
aI56
aI105
aI89
aI51
aI88
aI81
aI169
aI87
aI86
aI56
aI105
aI89
aI185
aI185
aI185
aI78
aI9
aI9
aI9
aI9
aI9
aI9
aI9
aI9
aI9
aI25
asS'DI'
p570
(lp571
I16
aI128
aI136
aI128
aI136
aI48
aI136
aI40
aI128
aI136
aI48
aI136
aI40
aI128
aI136
aI48
aI136
aI40
aI24
asS'T\x08'
p572
(lp573
I441
asS'LO'
p574
(lp575
I96
aI96
aI96
aI96
aI80
aI80
aI80
aI159
aI88
aI65
aI65
aI65
aI65
aI65
aI65
aI65
aI65
aI65
asS'UB'
p576
(lp577
I81
asS'TT'
p578
(lp579
I88
aI88
aI88
aI73
as.