ccollections
defaultdict
p0
(c__builtin__
list
p1
tp2
Rp3
S'L\xbe'
p4
(lp5
I145
aI240
aI169
aI160
asS'M\xbd'
p6
(lp7
I145
asS'M\xbc'
p8
(lp9
I185
asS'M\xbe'
p10
(lp11
I216
aI160
asS' B'
p12
(lp13
I105
aI160
aI96
aI49
aI145
aI393
aI112
aI120
aI88
aI48
aI145
aI81
aI56
aI336
aI64
aI65
aI272
aI65
aI57
aI97
aI96
aI57
aI184
aI104
aI64
aI201
aI105
aI57
aI305
aI145
aI321
aI169
aI88
aI185
aI177
aI81
aI105
aI129
aI73
aI105
aI97
aI65
aI225
aI232
aI201
aI593
aI73
aI97
aI88
aI174
aI176
aI129
aI809
aI89
aI256
aI89
aI248
aI169
aI112
aI113
aI113
aI137
aI160
aI168
aI65
aI152
aI80
aI88
aI113
aI208
aI104
aI89
aI65
aI120
aI160
aI697
aI128
aI184
aI144
aI233
aI201
aI88
aI81
aI88
aI105
aI65
aI89
aI64
aI97
aI336
aI169
aI88
aI105
aI65
asS' C'
p14
(lp15
I217
aI81
aI265
aI88
aI161
aI489
aI449
aI90
aI104
aI593
aI121
aI136
aI73
aI145
aI137
aI289
aI161
aI71
aI232
aI320
aI128
aI216
aI128
aI160
aI81
aI161
aI176
aI176
aI504
aI473
aI128
aI296
aI169
aI136
aI121
aI184
aI122
aI186
aI105
aI408
aI248
aI225
aI136
aI352
aI169
aI233
aI96
aI96
aI99
aI186
aI337
aI184
aI104
aI88
aI344
aI128
aI200
aI177
aI57
aI193
aI161
aI129
aI144
aI445
aI360
aI217
aI256
aI216
aI448
aI192
aI528
aI120
aI192
aI112
aI113
aI233
aI216
aI129
aI153
aI138
aI184
aI321
aI129
aI168
aI185
aI120
aI177
aI218
aI121
aI193
aI344
aI120
aI105
aI88
aI209
aI121
aI193
aI105
aI161
aI89
aI129
aI361
aI137
aI113
aI240
aI193
aI136
aI216
aI224
aI321
asS' A'
p16
(lp17
I64
aI89
aI113
aI49
aI192
aI120
aI88
aI105
aI48
aI80
aI88
aI128
aI41
aI55
aI48
aI153
aI56
aI72
aI56
aI65
aI89
aI97
aI136
aI199
aI65
aI409
aI41
aI89
aI152
aI144
aI88
aI56
aI209
aI25
aI40
aI89
aI1273
aI136
aI200
aI232
aI217
aI49
aI233
aI72
aI264
aI104
aI57
aI241
aI48
aI41
aI48
aI40
aI65
aI16
aI296
aI8
aI129
aI177
aI40
aI104
aI216
aI57
aI160
aI112
aI152
aI312
aI57
aI185
aI136
aI40
aI73
aI64
aI152
aI89
aI73
aI80
aI112
aI129
aI113
aI48
aI464
aI24
aI57
aI49
aI25
aI64
aI64
aI113
aI33
aI48
aI16
aI168
aI16
aI65
aI65
aI24
aI80
aI49
aI24
aI73
aI62
aI369
aI41
aI17
aI112
aI168
aI256
aI121
aI56
aI137
aI385
aI249
aI33
aI72
aI121
aI120
aI105
aI57
aI17
aI64
aI65
aI32
aI33
aI24
aI216
aI33
aI375
aI65
aI40
aI73
aI64
aI48
aI88
aI73
aI41
aI56
aI152
aI224
aI353
aI72
aI73
aI64
aI40
aI73
aI57
aI17
aI64
aI80
aI64
aI96
aI65
aI17
aI72
aI105
aI48
aI41
aI177
aI57
aI56
aI72
aI201
aI31
aI488
aI24
aI64
aI96
aI177
aI32
aI616
aI41
aI56
aI144
aI73
aI97
aI97
aI48
aI48
aI41
aI488
aI96
aI104
aI65
aI153
aI712
aI33
aI72
aI120
aI145
aI56
aI145
aI136
aI17
aI32
aI112
aI24
aI88
aI73
aI145
aI65
aI65
aI64
aI56
aI72
aI73
aI33
aI161
aI49
aI368
aI73
aI497
aI569
aI257
aI185
aI297
aI97
aI297
aI136
aI88
aI24
aI48
aI97
aI41
aI41
aI264
aI24
aI32
aI56
aI96
aI57
aI24
aI33
aI56
asS' F'
p18
(lp19
I89
aI128
aI185
aI72
aI113
aI73
aI57
aI88
aI113
aI153
aI49
aI121
aI97
aI81
aI81
aI80
aI113
aI161
aI89
aI257
aI105
aI73
aI49
aI312
aI145
aI81
aI176
aI113
aI1648
aI145
aI160
aI72
aI209
aI273
aI97
aI145
aI104
aI57
aI81
aI40
aI64
aI89
aI105
aI41
aI257
aI200
aI40
aI232
aI257
aI201
aI64
aI225
aI64
aI72
aI280
aI104
aI96
aI121
aI64
aI233
aI80
aI137
aI225
aI80
aI168
aI136
aI56
aI56
aI240
aI145
aI433
aI88
aI88
aI72
aI105
aI137
aI120
aI40
aI229
aI288
aI56
aI104
aI96
aI32
aI81
aI160
aI121
aI79
aI192
aI80
aI65
aI144
aI137
aI72
aI424
aI185
aI88
aI73
aI136
aI208
aI585
aI57
aI64
aI120
aI96
aI217
aI48
aI64
aI65
aI161
asS' G'
p20
(lp21
I113
aI249
aI257
aI57
aI72
aI64
aI96
aI272
aI43
aI185
aI481
aI201
aI169
aI56
aI193
aI80
aI232
aI105
aI121
aI480
aI328
aI144
aI129
aI440
aI73
aI73
aI96
aI112
asS' D'
p22
(lp23
I104
aI144
aI121
aI465
aI193
aI728
aI137
aI105
aI216
aI208
aI216
aI193
aI216
aI176
aI153
aI112
aI305
aI153
aI216
aI113
aI88
aI137
aI473
aI169
aI344
aI72
aI240
aI184
aI97
aI136
aI232
aI185
aI48
aI409
aI193
aI208
aI177
aI153
aI88
aI96
aI89
aI193
aI376
aI137
aI105
aI187
aI105
aI152
aI184
aI105
aI200
aI89
aI233
aI72
aI489
aI512
aI273
aI120
aI185
aI136
aI112
aI90
aI88
aI201
aI97
asS' E'
p24
(lp25
I224
aI649
aI88
aI32
aI64
aI81
aI64
aI113
aI401
aI193
aI121
aI56
aI145
aI97
aI128
aI89
aI73
aI120
aI73
aI313
aI57
aI112
aI265
aI168
aI105
aI224
aI232
aI113
aI81
aI177
aI25
aI64
aI80
aI152
aI336
aI56
aI296
aI336
aI184
aI152
aI241
aI41
aI112
aI57
aI105
aI89
aI96
aI80
aI89
aI72
aI88
aI248
aI153
aI73
aI153
aI194
aI193
aI176
aI96
aI96
aI272
aI96
aI56
aI145
aI417
aI72
aI128
aI209
aI496
aI64
aI89
aI745
aI160
aI89
aI96
aI121
aI857
aI120
aI176
aI241
aI176
asS' J'
p26
(lp27
I144
aI40
aI16
asS' K'
p28
(lp29
I105
aI57
aI128
aI89
aI121
aI144
aI65
aI33
asS' H'
p30
(lp31
I64
aI88
aI33
aI1281
aI288
aI48
aI121
aI193
aI192
aI153
aI73
aI41
aI128
aI56
aI72
aI193
aI9
aI56
aI208
aI225
aI25
aI65
aI224
aI32
aI16
aI145
aI144
aI72
aI208
aI456
aI112
aI40
aI136
aI72
aI65
aI56
aI105
aI8
aI177
aI145
aI97
aI208
aI24
aI8
aI96
aI80
aI208
aI57
aI216
aI32
aI8
aI176
aI121
aI89
aI232
aI152
aI64
aI129
aI48
aI105
aI256
aI145
aI127
aI40
aI16
aI104
aI256
aI41
aI64
aI40
aI104
aI24
asS' I'
p32
(lp33
I104
aI201
aI193
aI56
aI256
aI217
aI137
aI42
aI72
aI585
aI425
aI88
aI224
aI273
aI112
aI168
aI233
aI168
aI72
aI65
aI161
aI145
aI73
aI64
aI304
aI208
aI88
aI73
aI176
aI641
aI289
aI249
aI40
aI153
aI137
aI217
aI201
aI32
aI96
aI112
aI273
aI104
aI160
aI88
aI136
aI56
aI64
aI120
aI232
aI153
aI113
aI185
aI137
aI81
aI136
aI88
aI112
aI73
aI112
aI337
aI89
aI81
aI280
aI169
aI88
aI113
aI129
aI145
aI65
aI152
aI56
aI537
aI33
aI184
aI225
aI129
aI145
aI104
aI137
aI448
aI96
aI624
aI81
aI56
aI144
aI129
aI136
aI120
aI72
aI80
aI304
aI129
aI281
aI161
aI113
aI225
aI161
aI257
aI120
aI40
aI137
aI225
aI224
aI152
aI120
aI97
aI80
aI128
aI256
aI368
aI249
aI305
aI208
aI336
asS' N'
p34
(lp35
I304
aI256
aI16
aI184
aI57
aI129
aI64
aI56
aI49
aI81
aI9
aI256
aI55
aI73
aI456
aI41
aI113
aI105
aI152
aI184
aI185
aI73
aI73
aI505
aI17
aI137
aI200
aI153
aI73
aI241
aI193
aI265
aI153
aI121
aI80
aI73
aI385
aI321
aI128
aI345
aI97
aI65
aI97
aI120
aI225
asS' O'
p36
(lp37
I96
aI65
aI161
aI24
aI128
aI81
aI33
aI96
aI113
aI296
aI113
aI193
aI112
aI144
aI137
aI105
aI97
aI24
aI24
aI97
aI17
aI32
aI889
aI48
aI153
aI113
aI49
aI201
aI169
aI65
aI177
aI112
aI441
aI96
aI104
aI729
aI136
aI24
aI97
aI112
aI304
aI128
aI32
aI89
aI185
aI121
aI377
aI152
aI81
aI137
aI208
aI105
aI488
aI96
aI56
aI145
aI65
aI112
aI64
aI176
aI104
aI120
aI49
aI201
aI88
aI33
aI217
aI281
aI201
aI128
aI129
aI81
aI40
aI241
aI312
aI64
aI177
aI224
aI145
aI73
aI225
aI96
aI89
aI97
aI312
aI105
aI544
aI32
aI120
aI89
aI393
aI136
aI32
aI64
aI145
aI144
aI376
aI121
aI113
aI80
aI344
aI177
aI17
aI56
aI153
aI120
aI432
aI113
aI120
aI113
aI249
aI465
aI224
aI80
aI41
aI40
aI81
aI81
aI153
asS' L'
p38
(lp39
I81
aI169
aI97
aI24
aI48
aI72
aI8
aI145
aI129
aI33
aI120
aI185
aI104
aI88
aI112
aI32
aI145
aI65
aI73
aI112
aI185
aI33
aI48
aI185
aI161
aI56
aI137
aI129
aI97
aI80
aI72
aI425
aI105
aI32
aI144
aI32
asS' M'
p40
(lp41
I105
aI161
aI81
aI18
aI137
aI176
aI8
aI40
aI113
aI49
aI193
aI112
aI32
aI145
aI144
aI81
aI137
aI8
aI96
aI8
aI168
aI249
aI416
aI88
aI232
aI105
aI161
aI584
aI121
aI145
aI144
aI137
aI89
aI25
aI189
aI352
aI73
aI497
aI53
aI96
aI168
aI209
aI464
aI96
aI8
aI152
aI153
aI152
aI96
aI216
aI184
aI202
aI120
aI184
aI37
aI256
aI137
aI312
aI81
aI105
aI89
aI201
aI49
aI81
aI80
aI145
aI880
aI89
aI81
aI89
aI193
aI80
aI41
aI65
aI112
aI64
aI65
aI97
aI81
aI128
aI73
aI201
aI57
asS' R'
p42
(lp43
I105
aI64
aI57
aI208
aI57
aI129
aI152
aI65
aI80
aI136
aI80
aI64
aI1129
aI209
aI297
aI224
aI40
aI232
aI73
aI89
aI192
aI73
aI73
aI120
aI121
aI104
aI160
aI304
aI105
aI169
aI248
aI161
aI105
aI64
aI96
aI288
aI337
aI32
aI304
aI201
aI88
aI336
aI392
aI40
aI48
aI144
aI208
aI153
aI561
aI48
aI80
asS' S'
p44
(lp45
I225
aI56
aI57
aI217
aI88
aI209
aI248
aI137
aI120
aI176
aI392
aI361
aI616
aI177
aI33
aI112
aI48
aI80
aI112
aI440
aI40
aI80
aI224
aI121
aI81
aI73
aI161
aI512
aI96
aI209
aI200
aI81
aI280
aI89
aI536
aI200
aI416
aI81
aI121
aI441
aI160
aI104
aI97
aI81
aI305
aI112
aI144
aI201
aI49
aI88
aI128
aI176
aI272
aI112
aI72
aI192
aI113
aI56
aI57
aI137
aI112
aI144
aI56
aI457
aI104
aI153
aI105
aI97
aI113
aI456
aI104
aI128
aI241
aI504
aI72
aI104
aI72
aI104
aI97
aI121
aI136
aI113
aI32
aI113
aI249
aI160
aI216
aI393
aI152
aI113
aI144
aI72
aI145
aI289
aI80
aI193
aI104
aI40
aI73
aI97
aI241
aI81
aI73
aI193
aI161
aI97
aI65
aI232
aI360
aI425
aI49
aI153
aI89
aI168
aI177
aI224
aI81
aI121
aI432
aI104
aI201
aI296
aI56
aI104
aI129
aI489
aI184
aI329
aI161
aI72
aI184
aI88
aI72
aI32
aI392
aI480
aI329
aI105
aI304
aI225
aI41
aI185
aI185
aI176
asS' P'
p46
(lp47
I288
aI80
aI209
aI97
aI105
aI184
aI73
aI136
aI81
aI97
aI49
aI185
aI41
aI104
aI113
aI31
aI89
aI88
aI49
aI321
aI303
aI25
aI168
aI200
aI145
aI280
aI72
aI57
aI177
aI113
aI192
aI128
aI192
aI72
aI96
aI41
aI113
aI96
aI9
aI97
aI112
aI104
aI329
aI73
aI128
aI16
aI120
aI169
aI49
aI128
aI8
aI88
aI113
aI65
aI249
aI136
aI65
aI56
aI97
aI153
aI33
aI73
aI313
aI177
aI81
aI33
asS' Q'
p48
(lp49
I105
aI265
aI121
aI73
aI168
aI496
asS' V'
p50
(lp51
I121
aI153
aI361
aI112
aI41
aI145
aI89
aI57
aI192
aI369
aI345
aI113
asS' W'
p52
(lp53
I49
aI249
aI248
aI129
aI161
aI113
aI209
aI80
aI113
aI137
aI81
aI88
aI241
aI56
aI193
aI49
aI208
aI145
aI122
aI112
aI288
aI392
aI160
aI120
aI216
aI24
aI113
aI288
aI40
aI161
aI104
aI48
aI41
aI161
aI208
aI96
aI58
aI273
aI33
aI73
aI273
aI232
aI49
aI72
aI129
aI97
aI241
aI144
aI105
aI160
aI193
aI73
aI49
aI168
aI157
aI168
aI81
aI129
aI121
aI144
aI208
aI280
aI104
aI72
aI49
aI73
aI105
asS' T'
p54
(lp55
I288
aI16
aI113
aI49
aI176
aI103
aI129
aI73
aI72
aI120
aI81
aI161
aI113
aI202
aI105
aI121
aI96
aI81
aI169
aI65
aI192
aI192
aI112
aI288
aI513
aI193
aI144
aI136
aI112
aI161
aI89
aI57
aI129
aI81
aI57
aI65
aI48
aI216
aI72
aI33
aI88
aI80
aI88
aI72
aI88
aI81
aI48
aI48
aI32
aI128
aI184
aI128
aI416
aI185
aI120
aI64
aI121
aI112
aI48
aI56
aI73
aI129
aI264
aI120
aI144
aI80
aI336
aI296
aI72
aI57
aI297
aI113
aI72
aI80
aI48
aI40
aI161
aI176
aI481
aI88
aI208
aI121
aI184
aI80
aI137
aI112
aI96
aI65
aI128
aI112
aI81
aI57
aI257
aI73
aI201
aI81
aI297
aI280
aI729
aI129
aI80
aI48
aI97
aI128
aI96
aI80
aI168
aI184
aI112
aI552
aI137
aI121
aI193
aI73
aI105
aI113
aI121
aI153
aI192
aI56
aI113
aI208
aI104
aI89
aI217
aI64
aI48
aI73
aI152
aI152
aI352
aI160
aI56
aI392
aI145
aI121
aI121
aI97
aI65
aI257
aI113
aI64
aI120
aI73
aI137
aI88
aI105
aI144
aI225
aI64
aI48
aI64
aI360
aI64
aI80
aI89
aI281
aI120
aI97
aI97
aI16
aI73
aI81
aI48
aI40
aI80
aI112
aI160
aI105
aI65
aI273
aI97
aI137
aI209
aI225
aI49
aI96
aI176
aI57
aI353
aI65
aI144
aI80
aI88
aI80
aI105
aI121
aI56
aI80
aI80
aI88
aI160
aI64
aI120
aI121
aI25
aI49
aI232
aI72
aI96
aI585
aI105
aI113
aI145
aI97
aI120
aI33
aI289
aI152
aI49
aI88
aI184
aI200
aI153
aI1080
aI145
aI177
aI121
asS'G '
p56
(lp57
I16
aI25
aI241
aI40
aI8
aI121
aI24
aI49
aI70
aI32
aI512
aI9
aI16
aI8
aI25
aI49
aI49
aI97
aI16
aI49
aI33
aI8
aI48
aI88
aI1
aI40
aI8
aI24
aI1
aI49
aI32
aI96
aI9
aI33
aI41
aI80
aI48
aI49
aI24
aI48
aI41
aI40
aI54
aI32
aI8
aI62
aI8
aI25
aI25
aI16
aI145
aI57
aI121
aI24
aI48
aI33
aI9
aI40
aI16
aI25
aI32
aI9
aI1
aI73
aI56
aI40
aI32
aI8
aI41
aI0
aI8
aI49
aI16
aI49
aI32
aI49
aI8
aI185
aI57
aI25
aI1
aI96
aI9
aI9
aI1
aI0
aI48
aI32
aI1
aI8
asS' Y'
p58
(lp59
I33
aI136
aI288
aI264
aI65
aI41
aI128
aI40
aI73
aI57
aI65
aI72
aI40
aI8
aI81
aI73
aI624
aI57
aI25
aI344
aI97
aI56
aI40
aI104
aI73
aI65
aI9
aI120
aI81
aI113
aI97
aI56
aI49
aI144
aI192
aI32
aI201
aI9
aI808
aI96
aI296
aI72
aI24
aI9
aI80
aI40
aI81
aI160
aI24
aI64
aI17
aI81
aI32
aI72
aI73
aI73
aI41
aI73
aI24
aI169
aI33
aI80
aI81
aI201
aI176
aI32
aI24
aI73
aI8
aI368
aI97
aI64
aI145
aI312
aI8
aI73
aI153
aI16
aI9
aI176
aI105
aI113
aI89
aI40
aI65
aI89
aI40
aI8
aI57
aI25
aI112
aI48
aI112
aI209
aI169
aI65
aI89
asS'GU'
p60
(lp61
I47
aI249
aI136
aI9
aI200
aI33
aI153
aI161
aI152
aI17
aI0
aI176
aI16
aI505
asS'GT'
p62
(lp63
I81
aI152
aI328
asS'GS'
p64
(lp65
I129
aI89
aI89
aI65
aI224
aI96
aI265
aI185
asS'GR'
p66
(lp67
I88
aI80
aI81
aI168
aI88
aI105
aI104
aI441
aI161
aI80
asS' 2'
p68
(lp69
I177
aI129
aI201
asS' 3'
p70
(lp71
I304
aI465
aI440
aI426
aI352
aI136
asS'GE'
p72
(lp73
I65
aI56
aI81
aI81
aI161
aI105
aI161
aI176
aI264
aI48
aI137
aI72
aI73
aI73
aI65
aI128
aI57
aI145
aI64
aI169
aI80
aI169
aI128
aI105
aI96
aI120
asS' 1'
p74
(lp75
I944
aI65
aI65
aI80
aI145
asS' 6'
p76
(lp77
I417
aI488
aI336
aI272
asS'GA'
p78
(lp79
I233
aI240
aI48
aI48
aI73
aI105
asS' 5'
p80
(lp81
I137
asS'GO'
p82
(lp83
I17
aI24
aI193
aI1
aI16
aI57
aI16
aI1
aI32
aI56
asS'GN'
p84
(lp85
I105
aI40
aI105
aI136
aI473
asS' 8'
p86
(lp87
I256
asS'GL'
p88
(lp89
I57
asS'GI'
p90
(lp91
I24
aI1
aI8
aI208
aI97
aI121
asS'\xbf '
p92
(lp93
I0
aI233
aI128
aI57
asS' \x08'
p94
(lp95
I280
asS'OK'
p96
(lp97
I113
aI137
aI137
aI240
aI120
aI313
aI120
aI144
aI144
aI161
asS' \x10'
p98
(lp99
I409
asS'VO'
p100
(lp101
I41
aI33
aI168
aI8
aI33
aI16
aI17
asS'M '
p102
(lp103
I41
aI40
aI25
aI8
aI113
aI40
aI25
aI208
aI841
aI25
aI80
aI81
aI121
aI25
aI41
aI48
aI233
aI33
aI16
aI17
aI24
aI40
aI49
aI33
aI40
aI32
aI89
aI184
asS'SK'
p104
(lp105
I224
aI16
aI416
aI56
aI40
aI32
asS'YN'
p106
(lp107
I401
asS'G\xbe'
p108
(lp109
I121
aI113
aI144
aI113
asS'G\xbc'
p110
(lp111
I297
aI177
aI584
asS'R\xbc'
p112
(lp113
I89
aI176
aI161
aI25
aI57
aI120
aI128
asS'JU'
p114
(lp115
I113
aI144
aI128
asS'AT'
p116
(lp117
I73
aI81
aI49
aI33
aI33
aI168
aI8
aI16
aI8
aI49
aI32
aI32
aI40
aI65
aI153
aI8
aI950
aI33
aI9
aI16
aI8
aI40
aI200
aI9
aI32
aI41
aI8
aI361
aI65
aI0
aI33
aI136
aI168
aI1
aI49
aI97
aI121
aI121
aI272
aI41
aI161
aI1
aI161
aI169
aI40
aI32
aI8
aI0
aI225
aI16
aI8
aI8
aI8
aI1
aI41
aI120
aI153
aI73
aI78
aI16
aI40
aI89
aI105
aI41
aI81
aI63
aI72
aI81
aI24
aI40
aI57
aI145
aI89
aI72
aI40
aI33
aI89
aI14
aI72
aI72
aI64
aI48
aI40
aI16
aI64
aI65
aI25
aI8
aI49
aI152
aI152
aI129
aI41
aI64
aI64
aI96
aI8
aI1
aI105
aI9
aI24
aI8
aI16
aI32
aI0
aI1
aI120
asS'R\xbe'
p118
(lp119
I104
aI200
asS'Y\xbc'
p120
(lp121
I408
aI161
aI128
asS'ZE'
p122
(lp123
I73
aI56
aI65
asS'SL'
p124
(lp125
I272
aI89
aI185
aI80
aI33
aI49
aI488
aI17
aI240
aI32
aI32
aI8
aI609
aI89
aI129
aI48
aI72
aI89
aI9
aI25
aI216
aI24
aI25
aI32
aI40
aI193
aI33
aI41
aI9
aI65
aI8
aI41
aI112
aI49
aI177
aI73
aI32
aI432
aI41
aI64
aI16
aI185
aI33
aI40
aI48
aI8
aI24
aI56
aI40
aI9
aI25
aI32
aI32
aI17
aI32
aI32
aI16
asS' \xbd'
p126
(lp127
I121
aI80
aI8
aI49
asS'ME'
p128
(lp129
I56
aI161
aI176
aI120
aI65
aI81
aI24
aI104
aI184
aI144
aI17
aI120
aI137
aI17
aI9
aI49
aI168
aI161
aI121
aI144
aI54
aI8
aI33
aI89
aI209
aI65
aI63
aI8
aI48
aI40
aI33
aI24
aI81
aI16
aI73
aI112
aI72
aI48
aI73
aI217
aI40
aI24
aI49
aI24
aI40
aI8
aI17
aI16
aI57
aI73
aI70
aI25
aI16
aI8
aI32
aI17
aI8
aI49
aI8
aI8
asS'MD'
p130
(lp131
I553
asS'MF'
p132
(lp133
I152
aI105
aI200
asS'MA'
p134
(lp135
I89
aI56
aI81
aI24
aI56
aI25
aI232
aI24
aI264
aI24
aI41
aI352
aI40
aI112
aI2601
aI152
aI17
aI121
aI8
aI216
aI8
aI202
aI208
aI17
aI24
aI312
aI17
aI129
aI33
aI152
aI16
aI8
aI96
aI112
aI112
aI97
aI144
aI105
aI121
aI32
asS'MB'
p136
(lp137
I137
asS'MM'
p138
(lp139
I88
asS'MO'
p140
(lp141
I57
aI25
aI81
aI56
aI24
aI48
aI497
aI168
aI40
aI32
aI73
aI41
aI82
aI193
aI160
aI40
aI88
aI41
aI48
aI784
asS'MI'
p142
(lp143
I201
aI40
aI88
aI56
aI88
aI584
aI57
aI189
aI49
aI56
aI232
aI256
aI137
aI134
aI24
aI88
asS'MK'
p144
(lp145
I56
asS'MU'
p146
(lp147
I97
aI97
aI96
aI113
aI97
aI105
aI97
aI105
aI192
aI105
aI105
aI105
aI113
asS'MP'
p148
(lp149
I0
aI81
aI81
aI128
aI71
aI121
aI72
aI8
aI56
aI80
aI121
aI32
asS'MS'
p150
(lp151
I80
aI321
aI104
aI105
aI89
aI97
aI129
aI81
asS'MR'
p152
(lp153
I145
asS'3 '
p154
(lp155
I40
aI145
aI8
aI24
aI8
aI8
asS'\xbd '
p156
(lp157
I121
aI433
aI48
aI32
asS'FR'
p158
(lp159
I128
aI81
aI81
aI72
aI97
aI81
aI80
aI105
aI96
aI80
aI136
aI96
aI120
aI248
aI80
aI88
aI152
aI88
aI72
aI136
asS'FS'
p160
(lp161
I832
asS'FT'
p162
(lp163
I97
aI96
aI96
aI96
aI105
aI129
asS'FU'
p164
(lp165
I16
aI17
aI16
aI7
aI161
aI8
asS'FY'
p166
(lp167
I16
asS'FA'
p168
(lp169
I42
aI176
aI57
aI153
aI65
aI33
aI137
aI121
aI40
aI40
aI161
aI49
aI73
aI40
aI16
aI40
aI129
aI224
aI56
aI72
aI97
aI41
aI49
aI65
asS'FC'
p170
(lp171
I329
asS'FE'
p172
(lp173
I137
aI136
aI113
aI88
aI129
aI88
aI96
aI120
aI257
aI145
aI25
aI337
aI32
aI81
aI192
aI105
aI105
aI56
aI192
aI144
aI104
aI169
aI73
aI113
aI72
aI120
asS'FF'
p174
(lp175
I89
aI80
aI96
aI64
aI88
aI112
aI400
aI104
aI89
aI81
aI256
aI121
aI104
aI97
aI65
aI97
aI88
aI105
aI96
aI73
asS'Y\xde'
p176
(lp177
I184
asS'FI'
p178
(lp179
I1
aI24
aI9
aI280
aI8
aI48
aI48
aI8
aI41
aI48
aI41
aI25
aI72
aI56
aI73
aI129
aI209
asS'S '
p180
(lp181
I56
aI9
aI17
aI129
aI48
aI48
aI48
aI9
aI25
aI25
aI105
aI8
aI49
aI49
aI33
aI88
aI40
aI32
aI97
aI57
aI17
aI17
aI65
aI33
aI24
aI31
aI17
aI233
aI48
aI152
aI41
aI17
aI82
aI8
aI88
aI41
aI72
aI17
aI64
aI1
aI225
aI129
aI56
aI88
aI32
aI608
aI24
aI25
aI9
aI1
aI48
aI144
aI25
aI8
aI153
aI80
aI25
aI33
aI24
aI24
aI49
aI8
aI65
aI25
aI73
aI40
aI97
aI49
aI1
aI113
aI32
aI136
aI88
aI0
aI72
aI24
aI128
aI8
aI24
aI320
aI161
aI73
aI56
aI40
aI0
aI9
aI48
aI24
aI32
aI41
aI41
aI160
aI128
aI344
aI56
aI168
aI49
aI32
aI24
aI16
aI72
aI72
aI49
aI121
aI41
aI601
aI24
aI304
aI200
aI825
aI258
aI161
aI56
aI544
aI65
aI80
aI33
aI80
aI217
aI8
aI201
aI40
aI128
aI65
aI65
aI8
aI80
aI49
aI40
aI41
aI103
aI24
aI49
aI41
aI57
aI16
aI41
aI8
aI33
aI49
aI56
aI40
aI576
aI192
aI24
aI184
aI40
aI65
aI16
aI40
aI1
aI17
aI336
aI8
aI64
aI361
aI40
aI57
aI73
aI184
aI240
aI56
aI65
aI25
aI104
aI233
aI57
aI1024
aI16
aI41
aI73
aI31
aI33
aI112
asS'FL'
p182
(lp183
I289
aI105
aI57
asS'FO'
p184
(lp185
I9
aI128
aI185
aI8
aI9
aI25
aI0
aI153
aI33
aI8
aI72
aI81
aI24
aI32
aI17
aI80
aI88
aI24
aI0
aI145
aI8
aI209
aI16
aI25
aI57
aI17
aI32
aI24
aI112
aI24
aI32
aI257
aI33
aI8
aI96
aI40
aI72
aI24
aI233
aI137
aI33
aI17
aI136
aI32
aI8
aI240
aI145
aI105
aI97
aI113
aI129
aI89
aI112
aI80
aI416
aI1
aI72
aI129
aI88
aI89
aI0
aI192
aI144
aI81
aI8
aI121
aI105
aI41
aI89
aI33
aI32
aI145
aI138
aI96
asS'S\x10'
p186
(lp187
I720
aI81
aI233
aI289
asS'S\x08'
p188
(lp189
I497
asS'YE'
p190
(lp191
I48
aI201
aI176
asS' U'
p192
(lp193
I689
aI184
aI160
aI128
aI185
aI65
aI96
aI177
aI161
aI57
aI65
aI105
aI353
aI120
aI145
aI185
aI249
aI217
aI225
asS'F\x08'
p194
(lp195
I433
asS'L\xbc'
p196
(lp197
I224
aI288
aI313
asS'SY'
p198
(lp199
I8
aI24
asS'SS'
p200
(lp201
I104
aI88
aI96
aI96
aI65
aI99
aI97
aI88
aI97
aI81
aI89
aI88
aI97
aI73
aI96
aI89
aI104
aI112
aI105
aI98
aI89
aI113
aI97
aI96
aI86
asS'SR'
p202
(lp203
I337
aI297
asS'SP'
p204
(lp205
I56
aI24
asS'SW'
p206
(lp207
I88
asS'SU'
p208
(lp209
I217
aI8
aI80
aI16
aI177
aI49
aI0
aI8
aI8
aI201
aI16
aI176
aI24
aI32
aI57
aI8
aI8
aI16
aI93
aI8
aI73
aI289
aI224
aI128
asS'ST'
p210
(lp211
I192
aI64
aI121
aI48
aI25
aI161
aI88
aI169
aI153
aI121
aI81
aI72
aI65
aI121
aI97
aI129
aI176
aI144
aI88
aI41
aI56
aI129
aI80
aI160
aI192
aI50
aI97
aI72
aI120
aI152
aI72
aI80
aI89
aI73
aI80
aI73
aI168
aI72
aI49
aI24
aI80
aI104
aI109
aI97
aI112
aI73
aI378
aI89
asS'F '
p212
(lp213
I41
aI105
aI81
aI97
aI81
aI9
aI104
aI57
aI87
aI73
aI65
aI72
aI57
aI73
aI64
aI89
aI49
aI113
aI73
aI97
aI8
aI72
aI129
aI80
aI112
aI65
aI81
aI62
aI49
aI73
aI121
aI128
aI81
aI81
aI105
aI73
aI120
aI48
aI89
aI73
aI65
aI97
aI120
aI24
aI41
aI96
aI105
aI56
aI89
aI80
aI40
aI153
aI79
aI112
asS'SI'
p214
(lp215
I65
aI64
aI97
aI24
aI440
aI240
aI224
aI16
aI96
aI55
aI441
aI72
aI33
aI144
aI32
aI24
aI33
aI145
aI48
aI121
aI96
aI8
aI33
aI81
aI24
aI65
aI120
aI88
aI14
aI360
aI78
aI145
aI73
asS'SH'
p216
(lp217
I225
aI209
aI104
aI248
aI120
aI392
aI32
aI144
aI160
aI120
aI152
aI113
aI16
aI121
aI48
aI608
aI16
aI49
aI24
asS'SO'
p218
(lp219
I57
aI40
aI32
aI184
aI184
aI16
aI12
aI81
aI32
aI17
aI16
aI55
aI73
aI33
aI40
aI32
aI16
aI65
aI8
aI40
aI41
aI73
aI49
aI41
aI32
aI56
aI16
aI81
aI17
aI72
asS'SN'
p220
(lp221
I136
aI192
aI8
asS'SM'
p222
(lp223
I48
aI216
aI617
aI112
aI56
aI24
aI8
asS'Y\xbe'
p224
(lp225
I225
aI265
aI168
aI137
aI537
aI185
asS'SC'
p226
(lp227
I121
aI169
aI217
aI129
asS'SA'
p228
(lp229
I185
aI136
aI169
aI97
asS'SF'
p230
(lp231
I176
asS'SE'
p232
(lp233
I40
aI96
aI81
aI184
aI152
aI105
aI136
aI57
aI31
aI33
aI88
aI96
aI136
aI152
aI304
aI112
aI112
aI121
aI97
aI96
aI136
aI41
aI24
aI145
aI65
aI57
aI64
aI40
aI97
aI64
aI33
aI48
aI137
aI81
aI80
aI129
aI48
aI80
aI72
aI193
aI24
aI152
aI129
aI153
aI40
aI64
aI137
aI97
aI145
aI160
aI65
aI80
aI72
aI89
aI104
aI72
aI65
aI105
aI57
aI65
aI145
aI49
aI129
aI128
aI152
aI65
aI56
aI72
aI40
aI81
asS'YI'
p234
(lp235
I160
aI161
aI145
aI201
asS'S\xba'
p236
(lp237
I736
aI120
aI24
asS'YM'
p238
(lp239
I137
asS'S\xbe'
p240
(lp241
I145
aI305
aI73
aI144
aI169
aI209
aI458
aI248
aI41
aI145
aI33
aI145
aI112
aI97
aI169
aI185
aI121
aI121
aI224
aI296
aI56
aI121
aI209
aI96
aI384
aI57
aI49
aI176
aI137
aI168
aI121
aI8
aI336
aI384
asS'YO'
p242
(lp243
I113
aI128
aI129
aI137
aI137
aI121
aI132
aI120
aI136
aI129
aI113
aI105
aI136
aI136
aI137
aI112
aI120
aI144
aI121
aI121
aI121
aI113
aI112
aI105
aI113
aI121
aI161
aI112
aI121
aI144
aI129
aI121
aI120
aI125
aI113
aI113
aI113
aI120
aI128
aI136
aI128
aI128
aI121
aI120
aI136
aI120
aI114
aI137
aI129
aI121
aI113
aI136
aI120
aI121
aI152
aI128
aI112
aI120
aI121
aI129
aI145
aI145
aI136
aI137
aI137
aI121
aI152
aI113
aI128
aI137
aI120
aI129
aI143
aI120
aI136
aI129
aI128
aI121
aI121
aI145
aI141
aI113
aI121
aI120
aI96
aI121
aI128
aI128
aI120
aI136
aI129
aI137
aI97
asS'S\xbc'
p244
(lp245
I249
aI96
aI240
aI120
aI81
aI104
aI265
aI48
aI88
aI297
aI80
aI353
aI376
aI281
aI312
aI104
aI169
aI257
asS'YC'
p246
(lp247
I153
aI161
asS'\xba '
p248
(lp249
I352
aI256
aI88
aI56
asS'YP'
p250
(lp251
I32
aI105
aI49
asS'YS'
p252
(lp253
I57
aI120
aI8
aI72
aI57
asS'YR'
p254
(lp255
I593
aI384
asS'YT'
p256
(lp257
I120
asS'LF'
p258
(lp259
I89
asS'LD'
p260
(lp261
I161
aI137
aI152
aI321
aI73
aI177
aI161
aI113
asS'LE'
p262
(lp263
I96
aI49
aI184
aI32
aI24
aI65
aI81
aI17
aI32
aI8
aI105
aI40
aI56
aI25
aI9
aI177
aI49
aI16
aI129
aI184
aI24
aI144
aI24
aI64
aI80
aI49
aI57
aI168
aI224
aI72
aI120
aI104
aI97
aI81
aI57
aI96
aI48
aI17
aI49
aI96
aI56
aI40
aI49
aI73
aI129
aI81
aI107
aI73
aI33
aI40
aI128
aI73
aI129
aI72
aI41
aI48
aI96
aI136
aI16
aI65
aI72
aI80
aI16
aI16
aI24
aI57
aI97
aI64
aI8
aI120
aI57
aI97
aI105
aI16
aI65
aI137
aI49
aI73
aI97
aI251
aI201
aI160
aI24
aI185
aI145
aI32
aI113
aI97
aI129
aI121
aI8
aI73
aI88
aI8
aI48
aI288
aI64
aI113
aI81
aI88
aI96
aI32
aI64
aI97
aI40
aI40
aI33
aI72
aI65
aI241
aI137
aI56
aI9
aI96
aI41
aI217
aI49
aI64
aI168
aI48
aI137
aI105
aI56
asS'LC'
p264
(lp265
I160
aI249
aI408
asS'LA'
p266
(lp267
I24
aI17
aI57
aI48
aI96
aI120
aI104
aI105
aI49
aI32
aI160
aI16
aI120
aI24
aI89
aI177
aI120
aI88
aI153
aI96
aI320
aI8
aI24
aI25
aI8
aI104
aI80
aI80
aI105
aI425
aI24
aI23
aI49
aI32
aI32
aI41
asS'LN'
p268
(lp269
I72
asS'LO'
p270
(lp271
I49
aI72
aI169
aI89
aI64
aI105
aI152
aI96
aI169
aI153
aI153
aI104
aI65
aI97
aI177
aI121
aI129
aI145
aI152
aI112
aI81
aI128
aI97
aI145
aI145
aI137
aI161
asS'LL'
p272
(lp273
I72
aI72
aI65
aI73
aI81
aI97
aI64
aI80
aI80
aI81
aI88
aI81
aI81
aI81
aI121
aI89
aI72
aI80
aI80
aI104
aI145
aI80
aI89
aI153
aI72
aI73
aI80
aI72
aI81
asS'LK'
p274
(lp275
I152
aI489
aI32
asS'LI'
p276
(lp277
I56
aI56
aI65
aI88
aI89
aI56
aI112
aI137
aI256
aI176
aI104
aI32
aI112
aI185
aI88
aI185
aI161
aI56
aI24
aI145
aI208
aI233
aI32
aI201
aI120
asS'LV'
p278
(lp279
I22
asS'LW'
p280
(lp281
I56
asS'LT'
p282
(lp283
I233
aI81
aI201
aI232
aI152
aI176
aI185
aI25
aI57
aI657
aI168
aI121
aI40
aI41
aI104
aI56
aI65
aI40
aI89
aI145
aI1
asS'LU'
p284
(lp285
I24
aI89
aI49
aI57
aI73
aI64
aI113
asS'LR'
p286
(lp287
I33
asS'LS'
p288
(lp289
I97
aI64
aI81
aI57
aI33
aI184
aI32
aI0
aI9
aI24
aI64
aI48
aI56
aI80
aI32
aI56
aI65
aI33
asS'LP'
p290
(lp291
I112
aI127
aI128
aI120
aI536
aI170
aI137
aI136
aI169
aI113
aI161
aI138
aI153
asS'LY'
p292
(lp293
I80
aI65
aI169
aI81
aI57
aI96
aI96
aI81
aI57
aI81
aI185
aI80
aI56
aI129
aI56
aI72
aI80
aI81
aI161
asS'Y\x08'
p294
(lp295
I520
aI281
asS'L '
p296
(lp297
I16
aI89
aI129
aI16
aI105
aI33
aI56
aI55
aI81
aI96
aI9
aI42
aI9
aI105
aI41
aI33
aI89
aI72
aI9
aI89
aI48
aI8
aI272
aI145
aI9
aI16
aI1
aI153
aI8
aI33
aI25
aI57
aI32
aI8
aI25
aI33
asS'H '
p298
(lp299
I161
aI32
aI49
aI32
aI41
aI121
aI96
aI97
aI49
aI0
aI24
aI73
aI32
aI25
aI160
aI0
aI97
aI8
aI24
aI57
aI73
aI56
aI25
aI65
aI144
aI64
aI40
aI144
aI72
aI153
aI40
aI1
aI72
aI9
aI8
aI105
aI8
aI9
aI89
aI16
aI25
aI41
aI16
aI32
asS'GG'
p300
(lp301
I64
asS'Y '
p302
(lp303
I25
aI25
aI16
aI40
aI152
aI32
aI41
aI65
aI8
aI64
aI233
aI89
aI375
aI40
aI33
aI49
aI9
aI120
aI49
aI25
aI49
aI40
aI97
aI25
aI169
aI40
aI1025
aI56
aI41
aI48
aI80
aI8
aI48
aI96
aI8
aI17
aI136
aI8
aI56
aI41
aI65
aI40
aI40
aI48
aI249
aI41
aI17
aI25
aI81
aI113
aI89
aI32
aI7
aI185
aI41
aI16
aI48
aI233
aI385
aI88
aI24
aI129
aI72
aI121
aI41
aI145
aI40
aI32
aI16
aI48
aI304
aI1
aI9
aI8
aI1
aI32
aI96
aI25
aI17
aI1288
aI113
aI24
aI41
aI32
aI121
aI16
aI136
aI56
aI96
aI208
aI177
aI161
aI80
asS'L\x08'
p304
(lp305
I328
asS'UR'
p306
(lp307
I40
aI25
aI121
aI80
aI8
aI41
aI88
aI136
aI41
aI49
aI121
aI24
aI121
aI41
aI39
aI33
aI32
aI8
aI144
aI97
aI7
aI81
aI16
aI1
aI304
aI16
aI16
aI40
aI57
aI25
aI24
aI33
aI33
aI48
aI33
aI57
aI24
aI8
aI25
aI8
aI110
aI64
aI105
aI32
aI145
aI16
aI145
aI40
aI8
aI96
aI24
aI129
aI432
aI152
aI136
aI152
aI25
aI8
aI17
aI25
aI17
aI57
aI17
aI24
aI16
aI25
asS' 4'
p308
(lp309
I625
aI72
aI337
asS'RT'
p310
(lp311
I113
aI97
aI106
aI96
aI176
aI104
aI136
aI104
aI105
aI113
aI433
aI96
aI232
aI145
aI152
aI265
aI120
aI121
aI168
aI97
aI161
aI136
aI152
aI88
aI113
aI137
aI96
asS'RU'
p312
(lp313
I128
aI97
aI217
aI208
aI201
aI209
aI216
aI117
aI113
aI104
asS'RV'
p314
(lp315
I225
aI113
aI113
aI129
aI168
aI113
aI113
aI129
aI113
aI177
asS' 9'
p316
(lp317
I304
asS'RR'
p318
(lp319
I817
aI97
aI65
aI129
asS'RS'
p320
(lp321
I89
aI120
aI176
aI80
aI120
aI89
aI384
aI129
aI305
aI104
aI296
aI129
aI64
aI369
aI96
aI112
aI129
aI88
aI161
aI120
asS'GH'
p322
(lp323
I25
aI409
aI88
aI62
aI8
aI0
aI16
aI121
aI112
aI65
aI73
aI8
aI24
aI104
aI9
aI8
aI137
aI105
aI96
aI96
aI96
aI96
aI113
aI16
aI88
aI97
aI25
aI89
aI33
aI1
aI81
asS'RY'
p324
(lp325
I64
aI113
aI49
aI1
aI17
aI24
aI32
aI16
aI145
aI24
aI24
aI136
aI57
aI200
aI40
asS'E\xbd'
p326
(lp327
I401
aI192
aI146
asS'RE'
p328
(lp329
I88
aI113
aI145
aI25
aI48
aI56
aI40
aI65
aI41
aI65
aI112
aI129
aI41
aI73
aI80
aI48
aI777
aI87
aI57
aI49
aI73
aI48
aI8
aI24
aI49
aI73
aI56
aI41
aI65
aI49
aI63
aI40
aI72
aI56
aI33
aI79
aI72
aI65
aI65
aI64
aI57
aI97
aI112
aI48
aI89
aI120
aI80
aI48
aI65
aI113
aI57
aI40
aI105
aI64
aI65
aI57
aI56
aI105
aI33
aI32
aI17
aI56
aI128
aI40
aI32
aI64
aI32
aI169
aI105
aI96
aI40
aI57
aI25
aI8
aI32
aI57
aI73
aI72
aI64
aI128
aI80
aI104
aI81
aI40
aI672
aI54
aI153
aI72
aI88
aI88
aI89
aI49
aI96
aI81
aI56
aI57
aI97
aI65
aI81
aI49
aI120
aI33
aI72
aI265
aI96
aI25
aI64
aI64
aI208
aI153
aI41
aI48
aI32
aI32
aI89
aI73
asS'RF'
p330
(lp331
I96
aI321
aI96
asS'E\xbe'
p332
(lp333
I169
aI96
aI96
aI81
aI152
aI225
aI169
aI64
aI121
aI233
aI97
aI185
aI105
asS'2 '
p334
(lp335
I168
aI137
aI249
aI8
asS'RA'
p336
(lp337
I41
aI272
aI73
aI56
aI49
aI104
aI80
aI56
aI88
aI48
aI73
aI152
aI72
aI32
aI136
aI24
aI161
aI73
aI112
aI8
aI137
aI24
aI40
aI112
asS'RB'
p338
(lp339
I129
aI449
aI273
asS'RC'
p340
(lp341
I144
aI168
aI193
aI200
aI120
aI297
aI129
aI240
aI425
aI169
asS'RL'
p342
(lp343
I40
aI56
aI552
aI161
aI81
aI33
asS'RM'
p344
(lp345
I48
asS'RN'
p346
(lp347
I64
aI79
aI49
aI72
aI72
aI8
aI153
aI112
aI33
asS'RO'
p348
(lp349
I24
aI24
aI17
aI48
aI56
aI89
aI9
aI40
aI8
aI105
aI24
aI17
aI104
aI40
aI104
aI145
aI88
aI16
aI88
aI33
aI105
aI88
aI64
aI52
aI33
aI97
aI80
aI16
aI33
aI16
aI441
aI153
aI25
aI129
aI65
aI137
aI424
aI8
aI64
aI49
aI80
aI73
aI177
aI47
aI361
aI9
aI80
aI64
aI128
aI41
aI25
aI32
aI16
aI65
aI16
aI41
aI24
asS'RI'
p350
(lp351
I41
aI49
aI82
aI137
aI40
aI201
aI41
aI57
aI633
aI40
aI41
aI25
aI17
aI40
aI49
aI272
aI33
aI185
aI41
aI24
aI9
aI88
aI80
aI209
aI32
aI369
aI257
aI121
aI16
aI17
aI40
aI97
aI19
aI128
aI81
aI24
aI89
aI88
aI56
aI32
aI16
aI72
aI39
aI200
asS'RJ'
p352
(lp353
I121
asS'RK'
p354
(lp355
I17
aI129
aI217
asS'R '
p356
(lp357
I31
aI9
aI121
aI113
aI24
aI57
aI8
aI57
aI40
aI65
aI8
aI41
aI80
aI143
aI24
aI16
aI64
aI25
aI225
aI40
aI48
aI8
aI96
aI41
aI88
aI57
aI169
aI49
aI649
aI25
aI96
aI72
aI80
aI24
aI32
aI8
aI41
aI8
aI40
aI1
aI48
aI81
aI24
aI9
aI17
aI16
aI72
aI97
aI25
aI440
aI81
aI48
aI9
aI24
aI208
aI25
aI121
aI81
aI41
aI64
aI48
aI81
aI8
aI88
aI9
aI41
aI56
aI40
aI16
aI24
aI8
aI40
aI57
aI121
aI70
aI161
aI105
aI105
aI89
aI48
aI8
aI73
aI41
aI56
aI24
aI41
aI40
aI72
aI57
aI25
aI89
aI25
aI48
aI57
aI32
aI41
aI8
aI41
aI88
aI1
aI48
aI121
aI8
aI64
aI97
aI25
aI56
aI89
aI24
aI9
aI104
aI152
aI72
aI41
aI89
aI16
aI24
aI112
aI48
aI16
aI65
aI17
aI16
aI73
aI409
aI1
aI33
aI409
aI25
aI33
aI8
aI57
aI1
aI25
aI8
aI1
aI9
aI337
aI32
aI56
asS'E\x08'
p358
(lp359
I625
aI456
asS'8 '
p360
(lp361
I72
asS'E\x10'
p362
(lp363
I224
asS'\xbdT'
p364
(lp365
I49
asS'\xbdS'
p366
(lp367
I80
asS'\xbdR'
p368
(lp369
I28
asS'R\xde'
p370
(lp371
I369
asS'E '
p372
(lp373
I56
aI120
aI97
aI136
aI153
aI241
aI8
aI152
aI96
aI79
aI113
aI33
aI17
aI713
aI17
aI49
aI25
aI64
aI81
aI184
aI80
aI136
aI17
aI65
aI1
aI129
aI112
aI81
aI161
aI193
aI81
aI152
aI87
aI40
aI600
aI137
aI97
aI40
aI1
aI16
aI49
aI70
aI32
aI136
aI63
aI8
aI48
aI57
aI33
aI25
aI79
aI89
aI8
aI48
aI1
aI40
aI65
aI145
aI63
aI81
aI144
aI41
aI153
aI1
aI121
aI16
aI208
aI54
aI16
aI169
aI57
aI25
aI73
aI25
aI55
aI24
aI32
aI144
aI32
aI81
aI25
aI151
aI89
aI120
aI80
aI57
aI9
aI70
aI201
aI40
aI56
aI8
aI16
aI56
aI0
aI8
aI72
aI9
aI105
aI71
aI24
aI81
aI137
aI64
aI121
aI48
aI8
aI41
aI145
aI105
aI137
aI41
aI97
aI1
aI25
aI48
aI9
aI33
aI49
aI8
aI63
aI120
aI1
aI64
aI39
aI25
aI46
aI73
aI8
aI56
aI41
aI105
aI33
aI81
aI8
aI40
aI40
aI1
aI73
aI57
aI24
aI72
aI24
aI40
aI40
aI25
aI24
aI57
aI73
aI9
aI144
aI128
aI8
aI16
aI16
aI88
aI57
aI185
aI32
aI73
aI113
aI257
aI57
aI89
aI136
aI80
aI89
aI8
aI41
aI32
aI129
aI193
aI105
aI360
aI1
aI121
aI80
aI16
aI105
aI209
aI121
aI153
aI145
aI136
aI0
aI88
aI57
aI176
aI24
aI129
aI137
aI153
aI56
aI105
aI113
aI33
aI56
aI1
aI129
aI89
aI160
aI65
aI33
aI73
aI96
aI65
aI73
aI145
aI160
aI64
aI8
aI8
aI33
aI57
aI70
aI8
aI144
aI24
aI48
aI520
aI97
aI81
aI8
aI248
aI120
aI121
aI8
aI81
aI17
aI33
aI225
aI337
aI120
aI8
aI65
aI185
aI88
aI120
aI80
aI120
aI8
aI8
aI57
aI160
aI79
aI225
aI57
aI377
aI145
aI56
aI96
aI16
aI96
aI169
aI129
aI56
aI128
aI70
aI8
aI392
aI152
aI97
aI176
aI144
aI1
aI137
aI105
aI9
aI48
aI169
aI120
aI49
aI8
aI177
aI25
aI161
aI32
asS'\xbdG'
p374
(lp375
I64
asS'\xbdF'
p376
(lp377
I128
aI969
aI49
asS'\xbdC'
p378
(lp379
I433
aI241
asS'VI'
p380
(lp381
I40
aI8
aI49
aI40
aI48
aI65
aI57
aI65
aI49
aI40
aI10
aI329
aI137
aI33
aI40
aI9
aI16
aI129
aI16
aI89
aI17
aI8
aI49
aI25
aI233
aI56
aI16
aI113
aI33
aI153
aI155
aI25
asS'\xbdH'
p382
(lp383
I240
asS'EM'
p384
(lp385
I25
aI9
aI105
aI136
aI81
aI137
aI24
aI16
aI33
aI89
aI16
aI17
aI32
aI121
aI144
aI232
aI129
aI107
aI16
aI80
aI121
aI80
aI81
aI96
aI241
aI33
aI217
aI105
asS'EL'
p386
(lp387
I9
aI233
aI49
aI56
aI0
aI16
aI96
aI32
aI40
aI65
aI49
aI48
aI40
aI120
aI113
aI17
aI144
aI184
aI168
aI25
aI104
aI113
aI88
aI424
aI105
aI105
aI41
aI129
aI57
aI25
asS'EO'
p388
(lp389
I442
aI81
aI280
aI385
aI65
aI57
aI81
asS'EN'
p390
(lp391
I16
aI24
aI65
aI145
aI113
aI41
aI25
aI32
aI24
aI193
aI16
aI145
aI25
aI304
aI104
aI64
aI16
aI25
aI47
aI176
aI16
aI112
aI160
aI89
aI33
aI48
aI105
aI153
aI32
aI97
aI80
aI296
aI128
aI105
aI96
aI521
aI32
aI168
aI144
aI8
aI185
aI32
aI48
aI17
aI33
aI105
aI25
aI33
aI104
aI25
aI153
aI160
aI16
aI41
aI89
aI31
aI16
aI72
aI1
aI33
aI16
aI417
aI0
aI49
aI121
aI89
aI8
aI48
aI113
aI96
aI129
aI104
aI16
aI8
aI41
aI64
asS'EI'
p392
(lp393
I128
aI169
aI16
aI25
aI121
aI169
aI152
aI121
aI41
aI137
aI25
aI89
aI96
aI129
asS'EH'
p394
(lp395
I129
asS'EK'
p396
(lp397
I25
aI33
aI97
aI1008
asS'EE'
p398
(lp399
I104
aI73
aI97
aI105
aI96
aI48
aI129
aI96
aI216
aI112
aI152
aI104
aI136
aI104
aI104
aI105
aI232
aI88
aI161
aI89
aI104
aI112
aI97
aI97
aI129
aI104
aI105
aI129
aI121
aI97
aI121
aI120
aI137
aI129
aI113
aI104
aI96
aI120
aI112
aI192
aI104
aI120
aI104
aI97
aI120
aI106
aI112
aI112
aI96
aI129
aI113
aI104
aI113
aI104
aI105
aI153
aI129
aI105
aI129
aI184
aI105
aI120
aI121
aI120
aI119
aI112
aI112
aI104
aI105
aI104
aI104
aI96
aI96
aI144
aI120
aI113
aI97
aI120
aI104
aI112
aI104
aI129
aI192
aI112
asS'ED'
p400
(lp401
I153
aI185
aI120
aI201
aI113
aI120
aI224
aI105
aI112
aI160
aI136
aI153
aI185
aI137
aI185
aI129
aI185
aI112
aI113
aI97
aI193
aI201
aI97
aI112
aI113
aI113
aI417
aI112
aI113
aI120
aI101
aI144
aI96
aI105
aI145
aI161
aI112
aI217
aI105
aI120
aI104
aI88
aI128
aI168
aI120
aI192
aI113
aI113
aI136
aI129
aI177
aI128
aI201
aI121
aI176
aI177
aI113
aI129
aI337
aI136
asS'EG'
p402
(lp403
I80
aI73
aI177
aI249
aI137
aI121
aI113
aI136
aI200
aI209
aI153
aI161
aI152
aI425
aI104
aI176
aI113
aI505
aI168
aI169
asS'EF'
p404
(lp405
I88
aI105
aI129
aI9
aI312
aI360
aI65
aI41
aI56
aI56
aI128
aI32
aI40
aI16
aI40
aI113
aI48
aI112
asS'EA'
p406
(lp407
I145
aI81
aI57
aI57
aI168
aI89
aI81
aI56
aI72
aI81
aI73
aI80
aI56
aI120
aI64
aI89
aI88
aI73
aI177
aI160
aI80
aI88
aI65
aI81
aI65
aI104
aI72
aI160
aI80
aI81
aI200
aI65
aI72
aI56
aI49
aI96
aI80
aI161
aI89
aI97
aI80
aI136
aI168
aI73
aI49
aI56
aI121
aI72
aI57
aI64
aI104
aI73
aI161
aI288
aI73
aI72
aI72
aI80
aI81
aI62
aI64
aI153
aI129
aI89
aI49
aI121
aI72
aI232
aI168
aI129
aI89
aI128
aI105
aI81
aI177
aI152
aI48
aI129
aI129
aI81
aI89
aI72
aI184
aI64
aI81
aI97
aI64
aI80
aI65
aI113
aI65
aI80
aI72
aI57
aI249
asS'EC'
p408
(lp409
I136
aI161
aI88
aI145
aI184
aI152
aI103
aI81
aI96
aI96
aI96
aI112
aI121
aI169
aI129
aI112
aI105
aI129
aI113
aI193
aI89
aI105
aI113
aI144
aI137
aI137
aI192
aI641
asS'EY'
p410
(lp411
I8
aI25
aI32
aI32
aI96
aI94
asS'EX'
p412
(lp413
I121
aI128
aI152
aI137
aI153
aI161
aI169
aI144
aI224
aI192
aI193
aI225
aI144
aI129
aI168
aI144
aI169
aI168
aI168
aI128
aI153
aI168
asS'EU'
p414
(lp415
I105
aI40
asS'ET'
p416
(lp417
I105
aI97
aI96
aI88
aI104
aI136
aI177
aI104
aI40
aI224
aI176
aI65
aI104
aI73
aI80
aI56
aI73
aI144
aI64
aI121
aI88
aI32
aI112
aI56
aI112
aI129
aI89
aI72
aI329
aI65
aI89
aI160
aI65
aI72
aI145
aI56
aI65
aI129
asS'EW'
p418
(lp419
I48
asS'EV'
p420
(lp421
I200
aI89
aI121
aI64
aI824
aI72
aI120
aI88
aI128
aI105
aI97
aI128
aI89
aI105
aI104
asS'EQ'
p422
(lp423
I73
asS'EP'
p424
(lp425
I24
aI169
aI8
aI56
aI120
aI176
aI56
aI168
aI353
aI40
aI80
aI137
aI57
aI81
aI57
aI480
aI113
aI152
aI89
aI91
aI105
aI48
aI81
aI57
aI105
aI129
aI105
aI81
aI137
aI97
aI89
aI64
aI128
aI73
aI96
aI121
aI81
aI88
aI80
aI72
aI73
aI161
aI49
aI89
aI57
aI73
aI48
aI81
aI96
aI56
aI73
aI89
aI88
aI65
aI24
aI32
aI224
aI129
aI57
aI49
aI89
aI72
aI96
aI104
aI152
aI176
asS'ES'
p426
(lp427
I192
aI120
aI96
aI89
aI176
aI104
aI169
aI73
aI113
aI81
aI113
aI73
aI120
aI121
aI120
aI96
aI192
aI232
aI81
aI104
aI104
aI96
aI136
aI177
aI104
aI128
aI96
aI72
aI104
aI481
aI136
aI97
aI112
aI96
aI112
aI112
aI80
aI89
aI73
aI112
aI120
aI105
aI113
aI121
aI97
aI128
aI88
aI593
aI128
aI137
aI112
aI225
aI105
aI104
aI96
aI136
aI89
aI104
aI80
aI152
aI120
aI168
aI176
aI184
aI608
aI97
aI128
aI145
aI113
aI116
aI184
aI88
aI129
aI113
aI185
aI97
aI168
aI97
aI89
aI96
aI192
aI336
aI129
aI96
aI113
aI472
aI104
aI368
aI113
aI96
asS'ER'
p428
(lp429
I184
aI176
aI137
aI113
aI24
aI136
aI120
aI152
aI192
aI105
aI136
aI8
aI65
aI247
aI24
aI25
aI121
aI696
aI233
aI94
aI112
aI121
aI97
aI96
aI41
aI136
aI161
aI137
aI49
aI264
aI145
aI224
aI17
aI129
aI184
aI48
aI32
aI48
aI56
aI24
aI152
aI160
aI72
aI64
aI16
aI73
aI128
aI129
aI96
aI129
aI49
aI64
aI184
aI8
aI153
aI96
aI72
aI40
aI24
aI104
aI57
aI113
aI136
aI57
aI169
aI25
aI224
aI120
aI88
aI49
aI48
aI256
aI8
aI97
aI160
aI120
aI192
aI201
aI401
aI73
aI185
aI145
aI201
aI208
aI105
aI265
aI81
aI33
aI137
aI280
aI121
aI128
aI113
aI144
aI193
aI33
aI168
aI81
aI169
aI137
aI56
asS'K '
p430
(lp431
I65
aI169
aI32
aI104
aI65
aI113
aI80
aI56
aI16
aI81
aI57
aI136
aI240
aI145
aI33
aI241
aI40
aI73
aI145
aI9
aI352
aI41
aI217
asS'WA'
p432
(lp433
I136
aI168
aI185
aI144
aI113
aI89
aI96
aI104
aI144
aI88
aI153
aI449
aI89
aI185
aI193
aI121
aI768
aI129
asS'X '
p434
(lp435
I49
asS'XI'
p436
(lp437
I120
aI97
aI16
aI56
aI16
aI25
asS'XC'
p438
(lp439
I153
aI249
aI200
aI128
aI241
aI321
asS'XA'
p440
(lp441
I128
aI80
asS'XE'
p442
(lp443
I696
aI192
aI201
aI208
aI265
aI280
asS'XP'
p444
(lp445
I56
aI16
aI24
aI192
aI57
aI225
asS'N\xbc'
p446
(lp447
I385
aI265
aI169
aI168
asS'XT'
p448
(lp449
I121
asS'11'
p450
(lp451
I120
asS'KB'
p452
(lp453
I145
asS'KA'
p454
(lp455
I497
asS'12'
p456
(lp457
I65
asS'KE'
p458
(lp459
I32
aI72
aI17
aI33
aI79
aI24
aI35
aI89
aI8
aI9
aI89
aI9
aI8
aI25
aI185
aI33
aI120
aI41
aI113
aI8
aI57
aI185
aI89
aI168
aI88
aI8
aI16
aI25
aI97
aI8
aI112
aI32
aI57
aI96
aI144
aI1008
aI74
aI48
asS'KI'
p460
(lp461
I105
aI144
aI176
aI104
aI120
aI216
aI176
aI216
aI145
aI176
aI160
aI209
aI184
aI216
aI185
aI176
asS'KO'
p462
(lp463
I224
aI192
asS'KN'
p464
(lp465
I128
aI97
aI144
asS'KL'
p466
(lp467
I176
asS'KS'
p468
(lp469
I81
aI249
asS'1 '
p470
(lp471
I145
aI96
asS'D\xbc'
p472
(lp473
I201
aI113
asS'DO'
p474
(lp475
I81
aI32
aI1
aI65
aI64
aI57
aI86
aI80
aI64
aI56
aI40
aI41
aI42
aI152
aI8
aI57
aI24
aI25
asS'DL'
p476
(lp477
I152
asS'DI'
p478
(lp479
I73
aI57
aI32
aI24
aI16
aI216
aI8
aI145
aI8
aI64
aI25
aI8
aI32
aI104
aI25
aI185
aI65
aI16
aI120
aI50
aI8
aI24
aI9
aI40
aI73
aI25
aI24
aI24
aI105
aI41
aI73
aI40
aI489
aI24
aI32
aI56
aI32
aI16
aI22
aI16
aI33
asS'DF'
p480
(lp481
I273
asS'DD'
p482
(lp483
I289
aI72
aI96
aI177
aI97
asS'DE'
p484
(lp485
I88
aI153
aI105
aI89
aI105
aI104
aI168
aI233
aI88
aI89
aI112
aI104
aI224
aI160
aI81
aI113
aI184
aI80
aI201
aI97
aI129
aI121
aI81
aI104
aI96
aI793
aI185
aI169
asS'DA'
p486
(lp487
I88
aI240
aI97
aI72
aI145
aI56
aI128
aI129
aI145
aI144
aI49
asS'DY'
p488
(lp489
I40
aI145
aI33
aI1
aI177
aI16
aI40
aI41
aI8
asS'DV'
p490
(lp491
I241
aI192
asS'DT'
p492
(lp493
I329
aI97
aI129
aI170
aI96
aI40
aI97
aI167
aI96
aI112
aI177
aI81
aI169
asS'DU'
p494
(lp495
I24
aI16
aI17
aI401
aI121
aI32
aI8
aI152
aI16
aI89
aI49
aI33
aI24
aI105
aI96
aI8
aI17
aI81
aI81
asS'DR'
p496
(lp497
I81
aI48
aI112
aI48
aI128
aI289
aI169
aI96
asS'DS'
p498
(lp499
I801
aI161
aI297
aI88
aI105
aI121
aI137
aI88
aI161
aI145
aI129
aI112
aI209
aI96
aI497
aI89
aI144
aI80
aI89
aI105
aI168
aI88
aI136
asS'K\xbc'
p500
(lp501
I225
aI233
asS'X\xbe'
p502
(lp503
I258
asS'X\xbc'
p504
(lp505
I65
asS'D\x08'
p506
(lp507
I424
asS'QU'
p508
(lp509
I49
aI73
aI55
aI8
aI49
aI168
aI46
asS'D '
p510
(lp511
I32
aI81
aI137
aI185
aI17
aI41
aI0
aI48
aI8
aI24
aI40
aI64
aI104
aI9
aI41
aI1
aI40
aI25
aI33
aI65
aI0
aI64
aI17
aI33
aI49
aI73
aI57
aI65
aI8
aI48
aI56
aI48
aI224
aI73
aI41
aI56
aI24
aI8
aI65
aI56
aI952
aI24
aI40
aI58
aI57
aI89
aI49
aI56
aI81
aI25
aI25
aI96
aI57
aI65
aI16
aI97
aI185
aI48
aI8
aI86
aI81
aI25
aI78
aI40
aI16
aI16
aI49
aI57
aI8
aI65
aI193
aI32
aI201
aI48
aI40
aI57
aI24
aI49
aI25
aI56
aI54
aI264
aI16
aI113
aI64
aI1
aI8
aI46
aI40
aI40
aI16
aI9
aI1
aI33
aI16
aI40
aI81
aI40
aI56
aI40
aI65
aI73
aI33
aI217
aI89
aI25
aI41
aI65
aI8
aI49
aI168
aI104
aI1
aI17
aI192
aI0
aI57
aI40
aI8
aI24
aI40
aI1
aI25
aI0
aI1
aI201
aI33
aI176
aI1
aI65
aI177
aI145
aI8
aI129
aI40
aI56
aI81
aI113
aI57
asS'WE'
p512
(lp513
I169
aI128
aI169
aI71
aI73
aI89
aI129
aI88
aI161
aI97
aI337
aI129
aI168
asS'\xbe\xbe'
p514
(lp515
I137
aI161
asS'U\xbc'
p516
(lp517
I217
asS'WO'
p518
(lp519
I25
aI16
asS'WN'
p520
(lp521
I57
aI47
asS'WK'
p522
(lp523
I169
aI448
asS'WI'
p524
(lp525
I144
aI249
aI97
aI88
aI112
aI120
aI113
aI56
aI81
aI16
aI31
aI24
aI33
aI157
aI32
aI280
aI80
aI17
aI24
asS'WH'
p526
(lp527
I40
aI87
aI161
aI29
aI73
aI193
aI208
aI33
aI122
aI288
aI104
aI288
aI161
aI16
aI273
aI24
aI40
aI105
aI47
aI168
aI168
aI33
aI144
aI97
aI8
asS'WW'
p528
(lp529
I761
asS'JO'
p530
(lp531
I32
aI73
aI8
aI16
asS'WS'
p532
(lp533
I117
aI104
asS'WR'
p534
(lp535
I64
aI48
asS'JD'
p536
(lp537
I841
asS'JE'
p538
(lp539
I50
asS'10'
p540
(lp541
I944
aI16
asS'P\xbe'
p542
(lp543
I185
aI209
aI193
aI201
aI233
aI169
aI176
aI168
aI185
aI200
asS'P\xbc'
p544
(lp545
I248
aI185
aI561
aI176
asS'\x10T'
p546
(lp547
I409
asS'W '
p548
(lp549
I8
aI232
aI73
aI40
aI88
aI32
aI312
aI57
aI97
aI40
aI41
aI793
aI105
aI8
asS'\x10X'
p550
(lp551
I88
asS'\x10N'
p552
(lp553
I57
asS'\x10O'
p554
(lp555
I72
asS'\x10\xbf'
p556
(lp557
I720
aI81
aI233
aI289
asS'\tM'
p558
(lp559
I2601
asS'\xbe '
p560
(lp561
I873
aI272
aI361
aI89
aI304
aI49
aI169
aI128
aI233
aI112
aI121
aI120
aI313
aI96
aI161
aI48
aI225
aI281
aI97
aI145
aI977
aI152
aI41
aI537
aI73
aI144
aI49
aI88
aI528
aI96
aI81
aI97
aI72
aI80
aI64
aI40
aI369
aI73
aI537
aI105
aI105
aI272
aI88
aI112
aI65
aI73
aI65
aI945
aI97
aI65
aI113
aI56
aI121
aI296
aI241
aI113
aI96
aI65
aI64
aI216
aI104
aI81
aI144
aI73
aI120
aI73
aI49
aI25
aI48
aI48
aI641
aI81
aI169
aI233
aI225
aI65
aI400
aI49
aI41
aI32
aI129
aI57
aI57
aI104
aI40
aI56
aI257
aI104
aI1106
aI65
aI80
aI160
aI81
aI121
aI217
aI89
aI569
asS'W\xde'
p562
(lp563
I568
asS'PR'
p564
(lp565
I288
aI32
aI8
aI17
aI8
aI33
aI105
aI33
aI9
aI104
aI145
aI24
aI88
aI33
aI35
aI32
aI9
aI25
aI40
aI17
aI41
aI201
aI25
aI16
aI32
aI17
aI24
aI73
aI41
asS'PS'
p566
(lp567
I40
aI65
aI64
aI144
aI16
aI57
aI32
aI56
asS'PP'
p568
(lp569
I65
aI73
aI72
aI73
asS'PT'
p570
(lp571
I89
aI97
aI304
aI201
aI113
aI137
aI40
asS'PU'
p572
(lp573
I88
asS'PY'
p574
(lp575
I113
aI144
aI88
aI144
aI168
asS'PB'
p576
(lp577
I584
asS'0 '
p578
(lp579
I32
aI41
aI72
asS'PA'
p580
(lp581
I33
aI16
aI41
aI49
aI298
aI24
aI33
aI40
aI177
aI105
aI104
aI112
asS'PF'
p582
(lp583
I536
aI208
asS'PE'
p584
(lp585
I184
aI65
aI145
aI40
aI49
aI48
aI128
aI16
aI153
aI96
aI41
aI217
aI49
aI153
aI81
aI137
aI104
aI193
aI65
aI105
aI137
aI72
asS'PH'
p586
(lp587
I57
asS'PI'
p588
(lp589
I129
aI104
aI145
aI89
aI104
aI177
aI176
aI80
aI136
aI177
aI200
aI176
aI144
aI184
asS'PO'
p590
(lp591
I192
aI112
aI80
aI49
aI120
aI24
aI41
aI192
aI57
aI89
aI72
aI56
aI136
asS'PL'
p592
(lp593
I137
aI137
aI113
aI137
aI177
aI104
aI145
aI112
aI128
aI201
aI160
aI129
aI121
asS'P '
p594
(lp595
I48
aI48
aI120
aI104
aI73
aI104
aI81
aI49
aI120
aI25
aI200
aI112
aI121
aI136
aI81
aI32
aI1392
aI97
aI32
aI233
aI24
aI57
aI73
aI88
aI209
aI305
aI73
aI80
aI97
aI73
aI33
aI48
aI264
aI313
aI41
aI48
aI73
aI49
aI25
aI56
aI57
aI88
aI57
aI65
aI384
aI89
aI104
aI73
aI33
aI49
aI41
aI89
aI24
aI73
aI41
aI57
aI32
aI41
aI241
aI57
aI48
asS'\t '
p596
(lp597
I7849
aI3713
aI2593
asS'W\xbd'
p598
(lp599
I224
asS'6 '
p600
(lp601
I192
aI96
aI433
aI121
asS'C\x08'
p602
(lp603
I432
aI434
aI465
aI385
asS'RD'
p604
(lp605
I193
aI153
aI120
asS'E\xbc'
p606
(lp607
I233
aI169
aI72
aI176
aI144
aI137
aI129
aI153
aI168
aI32
aI265
aI96
aI128
aI96
aI102
aI129
aI80
aI127
asS'RG'
p608
(lp609
I225
aI112
asS'CK'
p610
(lp611
I16
aI208
aI160
aI33
aI48
aI8
aI169
aI32
aI41
aI33
aI32
aI40
aI41
asS'CI'
p612
(lp613
I16
aI9
aI17
aI137
aI8
aI41
aI104
aI224
aI401
aI41
aI128
aI8
aI1
aI9
aI32
aI425
aI9
aI41
aI25
aI0
asS'CH'
p614
(lp615
I113
aI129
aI105
aI64
aI161
aI225
aI1
aI96
aI128
aI96
aI216
aI128
aI104
aI25
aI176
aI176
aI504
aI49
aI296
aI1
aI49
aI128
aI184
aI105
aI16
aI248
aI136
aI352
aI169
aI0
aI88
aI8
aI9
aI16
aI1
aI24
aI0
aI16
aI585
aI104
aI64
aI89
aI64
asS'CO'
p616
(lp617
I25
aI17
aI8
aI8
aI65
aI184
aI41
aI24
aI8
aI72
aI41
aI46
aI53
aI41
aI40
aI129
aI25
aI16
aI64
aI48
aI24
aI49
aI41
aI9
aI97
aI153
aI33
aI33
aI144
aI24
aI24
aI32
aI49
aI24
aI17
aI55
aI8
aI49
aI16
aI249
aI264
aI0
aI41
aI192
asS'CM'
p618
(lp619
I82
asS'CL'
p620
(lp621
I24
aI89
aI49
aI33
aI96
aI24
aI73
aI16
aI49
aI0
aI8
aI10
aI33
aI193
asS'CC'
p622
(lp623
I73
aI72
aI104
aI81
asS'CA'
p624
(lp625
I89
aI112
aI73
aI40
aI128
aI136
aI136
aI144
aI120
aI112
aI113
aI33
aI113
aI33
aI88
aI120
aI48
aI233
aI65
aI64
aI120
aI40
aI72
aI128
aI168
aI32
aI40
aI40
aI65
aI89
aI80
aI65
aI54
aI41
aI40
aI128
aI49
aI80
aI143
aI40
aI72
aI64
aI169
aI121
aI96
aI137
asS'\xdeS'
p626
(lp627
I113
aI105
aI121
aI24
aI16
aI369
asS'\xdeT'
p628
(lp629
I57
aI49
aI57
aI41
aI23
aI48
aI33
aI48
asS'CE'
p630
(lp631
I136
aI65
aI152
aI120
aI80
aI88
aI120
aI25
aI97
aI64
aI247
aI72
aI49
aI81
aI153
aI65
aI145
aI57
aI80
aI144
aI184
aI81
aI56
aI80
aI64
aI256
aI97
aI73
aI70
aI49
aI89
aI104
aI56
aI376
aI129
aI56
aI89
aI401
aI113
aI72
asS'CY'
p632
(lp633
I169
aI9
aI49
aI136
asS'\xdeN'
p634
(lp635
I86
asS'CS'
p636
(lp637
I321
asS'CR'
p638
(lp639
I144
aI113
aI113
aI97
aI121
asS'CU'
p640
(lp641
I1
aI121
aI160
aI473
aI40
aI48
aI25
aI25
aI17
aI34
asS'CT'
p642
(lp643
I161
aI168
aI129
aI104
aI105
aI105
aI105
aI200
aI113
aI105
aI112
aI113
aI168
aI177
aI121
aI112
aI161
aI137
aI113
aI145
aI192
aI128
aI105
aI153
aI112
aI112
aI153
aI152
aI121
aI145
aI153
aI168
aI120
aI113
aI105
aI248
aI121
asS'D\xbe'
p644
(lp645
I185
aI88
aI73
aI57
aI105
asS'I\x10'
p646
(lp647
I201
asS'C\xbe'
p648
(lp649
I129
asS'I '
p650
(lp651
I41
aI736
asS'IY'
p652
(lp653
I193
asS'VA'
p654
(lp655
I337
aI49
aI48
aI80
aI41
aI145
asS'IZ'
p656
(lp657
I40
aI32
aI112
asS'VE'
p658
(lp659
I64
aI64
aI81
aI249
aI129
aI72
aI137
aI121
aI113
aI81
aI129
aI121
aI72
aI256
aI129
aI152
aI160
aI88
aI56
aI113
aI105
aI129
aI65
aI65
aI72
aI72
aI121
aI64
aI137
aI73
aI153
aI257
aI80
aI105
aI121
aI153
aI136
aI176
aI137
aI129
aI160
aI57
aI681
aI128
aI129
aI104
aI120
aI81
aI144
asS'IP'
p660
(lp661
I16
aI105
aI1
aI48
aI65
aI64
aI17
aI49
aI8
asS'IS'
p662
(lp663
I8
aI104
aI352
aI16
aI65
aI40
aI40
aI152
aI82
aI233
aI88
aI57
aI88
aI33
aI136
aI160
aI152
aI9
aI8
aI112
aI32
aI8
aI33
aI33
aI121
aI32
aI49
aI65
aI80
aI128
aI120
aI24
aI103
aI33
aI33
aI265
aI40
aI16
aI1
aI16
aI65
aI24
aI57
aI57
aI161
aI65
aI73
aI104
aI80
aI24
aI41
aI72
aI48
asS'IR'
p664
(lp665
I56
aI17
aI25
aI8
aI456
aI32
aI33
aI104
aI16
aI24
aI129
aI368
aI41
asS'IU'
p666
(lp667
I81
asS'IT'
p668
(lp669
I88
aI0
aI121
aI113
aI48
aI32
aI25
aI136
aI104
aI112
aI72
aI161
aI64
aI121
aI185
aI145
aI289
aI16
aI8
aI80
aI16
aI40
aI17
aI112
aI72
aI41
aI57
aI120
aI105
aI41
aI1
aI57
aI24
aI232
aI89
aI24
aI73
aI176
aI168
aI8
aI201
aI32
aI121
aI17
aI113
aI33
aI112
aI8
aI145
aI49
aI40
aI24
aI313
aI152
aI8
aI97
aI88
aI0
aI49
aI73
aI17
aI33
aI105
aI112
aI225
aI73
aI17
aI49
aI120
aI33
aI224
aI96
aI304
aI40
aI17
aI129
aI121
asS'IV'
p670
(lp671
I8
aI33
aI41
aI329
aI144
aI129
aI32
aI129
aI40
aI73
aI16
aI96
aI144
aI113
aI33
aI33
aI49
asS'IH'
p672
(lp673
I136
aI168
asS'IK'
p674
(lp675
I119
aI120
aI185
asS'IM'
p676
(lp677
I105
aI224
aI88
aI88
aI176
aI81
aI81
aI88
aI80
aI201
aI65
aI88
aI64
aI48
aI41
aI40
aI65
aI24
aI48
aI49
aI48
aI40
aI24
aI40
aI105
aI16
aI57
aI73
aI25
aI16
aI145
aI129
aI288
aI56
aI49
aI465
aI72
aI65
asS'IL'
p678
(lp679
I96
aI96
aI81
aI128
aI96
aI96
aI113
aI89
aI104
aI121
aI121
aI113
aI103
aI88
aI193
aI144
aI113
aI121
asS'IO'
p680
(lp681
I105
aI105
aI136
aI161
aI113
aI128
aI136
aI161
aI145
aI112
aI121
aI104
aI122
aI129
aI137
aI121
aI152
aI120
aI114
aI112
aI137
aI136
aI128
aI145
aI144
aI289
asS'IN'
p682
(lp683
I8
aI8
aI9
aI32
aI65
aI56
aI88
aI128
aI97
aI17
aI104
aI8
aI8
aI73
aI33
aI65
aI25
aI137
aI24
aI104
aI72
aI33
aI113
aI57
aI9
aI64
aI56
aI16
aI72
aI24
aI8
aI9
aI17
aI33
aI9
aI72
aI16
aI25
aI24
aI16
aI9
aI33
aI32
aI81
aI41
aI24
aI16
aI208
aI88
aI17
aI40
aI24
aI64
aI281
aI8
aI57
aI17
aI217
aI96
aI16
aI16
aI129
aI41
aI152
aI208
aI1
aI152
aI1
aI9
aI32
aI48
aI8
aI136
aI120
aI32
aI153
aI801
aI79
aI25
aI9
aI57
aI73
aI25
aI216
aI192
aI8
aI105
aI33
aI137
aI17
aI24
aI39
aI24
aI24
aI40
aI89
aI8
aI65
aI216
aI40
aI8
aI33
aI201
aI25
aI89
aI41
aI49
aI33
aI17
aI9
aI41
aI48
aI9
aI40
aI40
aI113
aI25
aI80
aI41
aI184
aI41
aI33
aI40
aI8
aI32
aI104
aI64
aI17
aI18
aI88
aI25
aI64
aI16
aI9
aI176
aI81
aI16
aI145
aI89
aI209
aI17
aI208
aI9
aI41
aI49
aI81
aI7
aI152
aI16
aI33
aI281
aI33
aI41
aI105
aI137
aI39
aI9
aI16
aI89
aI32
aI24
aI105
aI96
aI81
aI25
aI25
aI129
aI129
aI8
aI81
aI88
aI216
aI81
aI97
aI201
aI17
aI33
aI25
aI24
aI40
aI16
aI113
aI16
aI56
aI88
aI57
aI305
aI113
aI201
asS'IA'
p684
(lp685
I56
aI105
aI225
aI161
aI9
aI120
aI136
aI265
aI25
aI65
aI145
aI144
aI136
aI65
aI33
asS'VY'
p686
(lp687
I89
asS'IC'
p688
(lp689
I48
aI345
aI129
aI49
aI40
aI64
aI217
aI56
aI89
aI81
aI176
aI33
aI46
aI177
aI105
aI297
aI49
aI88
aI40
aI48
aI8
aI8
aI80
aI57
aI32
aI32
aI272
aI32
aI105
aI88
aI17
aI105
aI64
aI65
aI145
asS'IB'
p690
(lp691
I96
aI32
aI81
asS'IE'
p692
(lp693
I80
aI57
aI41
aI16
aI40
aI25
aI17
aI56
aI25
aI9
aI97
aI353
aI88
aI94
aI80
aI145
aI32
aI17
aI88
aI25
aI25
aI72
aI25
aI104
aI105
aI41
aI64
aI40
aI40
aI72
aI49
aI144
aI128
aI48
aI113
aI32
aI24
aI168
aI137
aI256
aI256
aI73
aI25
aI129
aI72
aI9
asS'ID'
p694
(lp695
I144
aI193
aI113
aI25
aI56
aI313
aI56
aI304
aI104
aI72
aI56
aI25
aI1089
aI33
aI24
aI40
aI186
aI9
aI169
aI56
aI57
aI89
aI145
asS'IG'
p696
(lp697
I88
aI96
aI17
aI9
aI9
aI112
aI65
aI8
aI65
aI16
aI40
aI32
aI41
aI24
aI128
aI96
aI97
aI136
aI16
aI16
aI8
aI113
aI25
aI32
aI41
aI385
aI33
aI345
aI32
asS'IF'
p698
(lp699
I32
aI57
aI65
aI73
aI88
aI129
aI97
aI65
aI65
aI49
aI24
aI121
aI128
aI105
aI87
aI56
aI73
aI264
aI9
aI54
aI65
aI120
aI32
aI96
aI16
aI73
aI49
aI72
aI79
aI336
asS'O\xde'
p700
(lp701
I86
asS'BE'
p702
(lp703
I104
aI136
aI96
aI80
aI96
aI80
aI144
aI72
aI169
aI151
aI73
aI129
aI72
aI145
aI73
aI73
aI73
aI80
aI89
aI73
aI81
aI72
aI80
aI185
aI144
aI88
aI80
aI128
aI72
aI89
aI89
aI72
aI64
aI73
aI97
aI72
aI64
aI80
aI73
aI73
aI65
aI63
aI72
aI72
aI113
aI144
aI73
aI80
aI73
aI88
aI96
aI144
aI105
aI160
aI97
aI81
aI80
aI81
aI72
aI89
aI169
aI177
aI161
asS'BA'
p704
(lp705
I49
aI24
aI625
aI40
aI24
aI32
aI40
aI25
aI48
aI128
aI41
aI56
aI57
aI64
aI112
aI72
aI105
aI97
asS'BL'
p706
(lp707
I72
aI41
aI73
aI393
aI96
aI88
aI7
aI169
aI144
aI104
aI32
aI8
aI392
aI104
aI105
aI81
aI25
aI88
aI24
aI56
aI32
aI24
aI33
aI129
aI97
aI113
aI115
aI65
aI120
aI105
asS'BO'
p708
(lp709
I16
aI145
aI40
aI145
aI169
aI17
aI41
aI57
aI64
aI41
aI24
asS'BI'
p710
(lp711
I104
aI112
aI120
aI48
aI17
asS'BJ'
p712
(lp713
I56
asS'O '
p714
(lp715
I8
aI139
aI113
aI9
aI128
aI24
aI97
aI40
aI88
aI32
aI8
aI1
aI89
aI40
aI80
aI72
aI113
aI145
aI1
aI9
aI112
aI8
aI49
aI104
aI72
aI40
aI24
aI16
aI49
aI8
aI49
aI25
aI360
aI33
aI33
aI8
aI57
aI89
aI17
aI8
aI103
aI96
aI33
aI25
aI8
aI24
aI32
aI81
aI89
aI8
aI80
aI33
aI17
aI72
aI64
aI32
aI1
aI97
aI32
aI1
aI217
aI96
aI72
aI121
aI0
aI105
aI81
aI65
aI16
aI73
aI225
aI57
aI105
aI1
aI105
aI25
aI81
aI88
aI89
aI88
aI25
aI32
aI81
aI24
aI81
aI80
aI48
aI80
aI24
aI32
aI121
aI81
aI41
aI8
aI104
aI16
aI72
aI33
aI8
asS'BU'
p716
(lp717
I16
aI9
aI177
aI16
aI24
aI32
aI41
aI8
asS'\x08\x08'
p718
(lp719
I80
aI64
asS'BR'
p720
(lp721
I120
aI128
aI104
aI104
aI97
asS'\x08C'
p722
(lp723
I497
aI113
asS'BY'
p724
(lp725
I25
asS'O\x08'
p726
(lp727
I272
aI257
asS'\x08 '
p728
(lp729
I121
asS'TH'
p730
(lp731
I8
aI233
aI113
aI176
aI88
aI81
aI72
aI56
aI49
aI8
aI161
aI41
aI57
aI49
aI202
aI105
aI121
aI96
aI81
aI65
aI169
aI232
aI192
aI56
aI49
aI193
aI57
aI152
aI950
aI65
aI24
aI161
aI56
aI64
aI216
aI72
aI33
aI88
aI49
aI72
aI80
aI64
aI47
aI184
aI57
aI129
aI657
aI72
aI64
aI120
aI40
aI112
aI48
aI73
aI264
aI225
aI72
aI105
aI73
aI72
aI145
aI120
aI97
aI88
aI49
aI121
aI49
aI121
aI80
aI137
aI41
aI56
aI73
aI32
aI73
aI80
aI8
aI56
aI89
aI56
aI73
aI121
aI193
aI24
aI41
aI8
aI56
aI64
aI32
aI49
aI89
aI40
aI392
aI55
aI121
aI86
aI39
aI120
aI73
aI65
aI48
aI137
aI24
aI80
aI57
aI48
aI80
aI328
aI281
aI97
aI57
aI57
aI48
aI105
aI73
aI225
aI24
aI88
aI112
aI80
aI160
aI120
aI81
aI120
aI64
aI304
aI105
aI145
aI17
aI8
aI121
aI8
aI200
aI1080
aI73
asS'\x08R'
p732
(lp733
I65
asS'\x08S'
p734
(lp735
I64
aI185
aI8
asS'TI'
p736
(lp737
I97
aI105
aI81
aI97
aI73
aI72
aI16
aI161
aI121
aI89
aI136
aI88
aI112
aI609
aI176
aI25
aI113
aI80
aI96
aI8
aI40
aI121
aI104
aI504
aI97
aI145
aI136
aI81
aI96
aI80
aI129
aI8
aI129
aI152
aI33
aI81
aI81
aI73
aI65
aI64
aI8
aI57
aI25
aI64
aI24
aI168
aI105
aI65
aI89
aI57
aI88
aI89
aI177
aI144
aI63
aI24
aI176
aI161
aI113
aI113
aI513
aI40
aI32
aI64
aI15
aI145
aI22
aI97
aI81
aI112
aI304
aI16
aI9
aI201
aI40
aI49
aI144
aI88
aI17
aI25
aI8
aI152
aI64
aI64
aI65
aI24
aI73
aI64
aI105
aI145
aI73
aI73
aI72
aI62
aI152
aI89
aI289
aI145
aI129
aI89
aI16
aI81
aI81
aI89
aI88
aI48
aI81
aI97
aI72
aI25
aI65
aI49
aI9
aI17
aI113
aI153
asS'B\x08'
p738
(lp739
I481
asS'\x08T'
p740
(lp741
I49
aI432
aI32
aI64
aI16
asS'\x08U'
p742
(lp743
I184
asS'\x08H'
p744
(lp745
I113
asS'\x08I'
p746
(lp747
I144
aI137
aI200
aI136
asS'\x08O'
p748
(lp749
I168
asS'\x08B'
p750
(lp751
I8
asS'B '
p752
(lp753
I208
aI121
aI136
asS'\x08A'
p754
(lp755
I97
aI57
aI88
asS'\x08D'
p756
(lp757
I24
asS'\x08E'
p758
(lp759
I32
aI8
asS'OO'
p760
(lp761
I48
aI80
aI65
aI41
aI89
aI65
aI64
aI65
aI64
aI73
aI88
aI81
aI73
aI64
aI88
aI137
aI80
aI80
aI128
aI59
aI73
aI136
aI72
aI81
aI64
aI56
aI80
aI81
aI81
aI89
aI64
aI81
aI80
aI104
aI65
aI73
aI73
aI88
aI104
aI64
aI80
aI73
aI96
aI81
aI97
aI81
aI105
aI80
aI104
aI120
aI89
aI104
aI136
aI281
aI161
aI65
aI105
aI105
aI80
aI105
asS'ON'
p762
(lp763
I105
aI8
aI8
aI33
aI136
aI17
aI81
aI65
aI217
aI41
aI161
aI113
aI184
aI65
aI0
aI201
aI41
aI136
aI64
aI57
aI161
aI145
aI25
aI112
aI49
aI49
aI16
aI121
aI26
aI64
aI17
aI56
aI64
aI40
aI104
aI81
aI72
aI33
aI7
aI128
aI25
aI17
aI41
aI24
aI16
aI25
aI0
aI152
aI120
aI441
aI53
aI41
aI65
aI40
aI489
aI25
aI114
aI64
aI32
aI8
aI137
aI136
aI137
aI48
aI16
aI24
aI49
aI89
aI145
aI128
aI137
aI72
aI25
aI88
aI25
aI289
aI103
aI113
aI48
aI32
aI48
aI264
aI41
asS'OM'
p764
(lp765
I40
aI41
aI40
aI8
aI88
aI49
aI48
aI88
aI25
aI41
aI46
aI48
aI33
aI32
aI137
aI41
aI96
aI104
aI9
aI134
aI40
aI288
aI33
aI97
aI153
aI113
aI33
aI40
aI8
aI24
aI32
asS'OL'
p766
(lp767
I104
aI129
aI105
aI128
aI113
aI121
aI113
aI113
aI97
aI120
aI112
aI113
aI129
aI128
aI144
aI116
aI121
aI128
asS'H\xbe'
p768
(lp769
I169
asS'OI'
p770
(lp771
I640
aI176
aI136
aI121
aI129
aI112
aI185
aI121
aI105
aI136
aI145
aI143
asS'H\xbc'
p772
(lp773
I233
aI200
aI168
asS'OH'
p774
(lp775
I127
aI121
aI185
asS'OG'
p776
(lp777
I472
asS'OF'
p778
(lp779
I41
aI105
aI81
aI97
aI81
aI17
aI104
aI57
aI87
aI65
aI72
aI64
aI89
aI49
aI113
aI73
aI17
aI441
aI24
aI72
aI80
aI24
aI62
aI73
aI24
aI729
aI104
aI120
aI48
aI89
aI65
aI32
aI88
aI144
aI16
aI65
aI105
aI56
aI89
aI80
aI153
asS'OD'
p780
(lp781
I57
aI89
aI137
aI153
aI9
aI33
aI17
aI56
aI504
aI145
aI25
aI32
aI41
aI25
aI145
aI40
aI56
aI137
aI65
aI128
aI48
aI72
aI48
aI136
aI57
aI128
aI25
aI56
aI81
aI25
aI9
aI24
aI40
aI497
aI104
aI97
aI16
aI24
aI32
aI160
aI65
aI49
aI8
aI80
aI7
aI80
aI24
aI24
aI241
aI641
aI56
aI129
asS'OC'
p782
(lp783
I153
aI184
aI128
aI24
aI331
aI89
aI72
aI216
aI56
aI64
aI65
asS'OB'
p784
(lp785
I96
aI8
aI104
aI105
aI41
aI425
aI97
aI113
aI115
aI33
aI120
aI105
asS'OA'
p786
(lp787
I40
aI41
asS'OY'
p788
(lp789
I176
aI73
aI81
asS'OW'
p790
(lp791
I0
aI8
aI169
aI1
aI9
aI144
aI16
aI17
aI153
aI49
aI9
aI80
aI24
aI120
aI24
aI16
aI145
aI152
aI72
aI153
aI64
asS'OV'
p792
(lp793
I81
aI169
aI128
aI472
aI80
aI24
aI48
aI137
aI513
aI25
aI41
aI48
aI153
aI137
asS'OU'
p794
(lp795
I41
aI17
aI40
aI129
aI25
aI113
aI73
aI137
aI97
aI121
aI33
aI132
aI40
aI97
aI24
aI136
aI89
aI16
aI8
aI8
aI136
aI41
aI24
aI112
aI17
aI144
aI889
aI25
aI49
aI16
aI24
aI41
aI113
aI8
aI39
aI33
aI32
aI40
aI41
aI161
aI48
aI8
aI9
aI121
aI104
aI144
aI88
aI49
aI7
aI120
aI125
aI16
aI1
aI113
aI25
aI120
aI208
aI128
aI25
aI128
aI128
aI16
aI120
aI136
aI120
aI105
aI32
aI32
aI24
aI128
aI8
aI17
aI25
aI136
aI281
aI33
aI64
aI52
aI48
aI55
aI80
aI97
aI161
aI33
aI152
aI24
aI112
aI8
aI40
aI25
aI224
aI40
aI145
aI17
aI136
aI137
aI9
aI32
aI25
aI152
aI113
aI33
aI16
aI49
aI137
aI144
aI8
aI25
aI16
aI8
aI65
aI9
aI145
aI40
aI129
aI24
aI47
aI24
aI8
aI129
aI49
aI432
aI152
aI48
aI65
aI49
aI8
aI17
aI24
aI113
aI25
aI17
aI33
aI16
aI16
aI17
aI24
aI40
aI41
aI16
aI1
aI25
aI9
asS'OT'
p796
(lp797
I104
aI81
aI73
aI113
aI16
aI32
aI609
aI64
aI16
aI49
aI288
aI41
aI25
aI32
aI64
aI97
aI1
aI120
aI48
aI8
aI49
aI150
aI57
aI25
aI97
aI105
aI104
aI57
aI96
aI57
aI185
aI80
aI81
aI49
aI8
asS'OS'
p798
(lp799
I81
aI40
aI121
aI41
aI24
aI176
aI25
aI8
aI16
aI39
aI73
aI8
aI145
aI145
aI137
aI161
aI33
asS'5 '
p800
(lp801
I89
asS'OP'
p802
(lp803
I185
aI152
aI81
aI65
aI82
aI57
aI81
aI104
asS'HY'
p804
(lp805
I104
aI304
aI192
aI81
aI256
aI81
aI72
asS'HR'
p806
(lp807
I329
aI56
aI81
aI792
asS'HT'
p808
(lp809
I16
aI62
aI8
aI24
aI41
aI24
aI8
aI73
aI104
aI136
aI9
aI1
aI137
aI105
aI24
aI96
aI96
aI72
aI113
aI1
aI88
aI97
aI168
aI89
aI8
aI81
asS'HU'
p810
(lp811
I89
aI80
aI80
aI104
asS'O\xbe'
p812
(lp813
I1616
asS'O\xbd'
p814
(lp815
I593
asS'HI'
p816
(lp817
I40
aI29
aI192
aI104
aI41
aI224
aI25
aI72
aI115
aI184
aI16
aI248
aI201
aI201
aI24
aI40
aI32
aI121
aI256
aI105
aI129
aI24
aI17
asS'HO'
p818
(lp819
I137
aI105
aI113
aI87
aI97
aI1
aI169
aI97
aI73
aI65
aI144
aI16
aI33
aI17
aI88
aI81
aI136
aI32
aI185
aI88
aI80
aI128
aI88
aI112
aI8
aI41
aI150
aI57
aI97
aI105
aI153
aI145
aI201
aI129
aI152
aI121
aI304
aI96
aI104
aI113
aI89
aI113
aI72
aI72
asS'HA'
p820
(lp821
I81
aI96
aI49
aI17
aI88
aI65
aI248
aI128
aI41
aI80
aI145
aI233
aI144
aI57
aI456
aI112
aI104
aI49
aI136
aI8
aI49
aI73
aI17
aI89
aI105
aI41
aI145
aI73
aI56
aI24
aI64
aI76
aI216
aI61
aI54
aI49
aI80
aI121
aI89
aI232
aI40
aI32
aI152
aI129
aI33
aI89
aI104
aI97
asS'HG'
p822
(lp823
I328
aI129
asS'HD'
p824
(lp825
I233
asS'HE'
p826
(lp827
I120
aI16
aI97
aI81
aI80
aI79
aI409
aI17
aI113
aI65
aI49
aI81
aI9
aI80
aI8
aI33
aI49
aI16
aI81
aI25
aI17
aI153
aI48
aI49
aI17
aI41
aI24
aI97
aI43
aI72
aI70
aI97
aI17
aI96
aI17
aI137
aI8
aI63
aI81
aI41
aI105
aI9
aI17
aI17
aI65
aI40
aI56
aI24
aI80
aI24
aI32
aI24
aI73
aI89
aI57
aI70
aI17
aI81
aI80
aI65
aI72
aI16
aI71
aI521
aI56
aI81
aI40
aI120
aI41
aI48
aI209
aI73
aI43
aI31
aI33
aI49
aI64
aI32
aI39
aI97
aI46
aI24
aI113
aI73
aI41
aI88
aI40
aI8
aI208
aI88
aI105
aI57
aI89
aI41
aI16
aI88
aI40
aI105
aI57
aI105
aI129
aI113
aI65
aI25
aI185
aI161
aI64
aI57
aI9
aI24
aI81
aI96
aI57
aI80
aI40
aI79
aI73
aI104
aI94
aI56
aI40
aI24
aI24
aI32
aI81
aI81
aI32
asS'\x08\xbc'
p828
(lp829
I512
asS'H\x10'
p830
(lp831
I1281
asS'A\xbc'
p832
(lp833
I545
aI345
asS'UT'
p834
(lp835
I41
aI120
aI201
aI152
aI305
aI88
aI25
aI16
aI153
aI88
aI265
aI193
aI47
aI48
aI9
aI57
aI208
aI169
aI177
aI97
aI49
aI8
aI17
aI9
aI8
aI8
aI25
aI33
aI80
aI40
aI65
aI96
aI8
aI9
aI32
asS'UP'
p836
(lp837
I57
aI40
aI24
aI128
aI104
aI185
aI56
aI65
aI112
aI117
aI104
aI65
aI120
aI185
aI113
aI104
asS'US'
p838
(lp839
I73
aI160
aI113
aI144
aI25
aI40
aI433
aI128
aI105
aI185
aI105
aI105
aI353
aI16
aI192
aI9
aI8
aI17
aI249
aI16
aI9
aI65
aI128
aI8
aI217
aI52
aI9
asS'OR'
p840
(lp841
I137
aI7
aI73
aI25
aI17
aI73
aI57
aI65
aI1
aI80
aI64
aI105
aI40
aI80
aI1
aI88
aI57
aI8
aI8
aI17
aI96
aI1
aI729
aI48
aI41
aI128
aI120
aI81
aI96
aI81
aI8
aI16
aI488
aI9
aI121
aI81
aI16
aI81
aI88
aI25
aI201
aI17
aI25
aI121
aI70
aI40
aI89
aI73
aI312
aI64
aI8
aI32
aI25
aI129
aI33
aI8
aI72
aI89
aI89
aI80
aI57
aI16
aI9
aI97
aI80
aI8
aI56
aI129
aI9
aI97
aI16
aI56
aI32
aI89
aI24
aI104
aI72
aI88
aI8
aI73
aI64
aI1
aI25
aI65
aI8
aI9
aI289
aI145
aI193
aI138
aI7
aI80
aI40
aI41
aI64
aI8
aI25
aI41
aI40
aI32
aI9
aI0
asS'UM'
p842
(lp843
I137
aI232
aI240
asS'UL'
p844
(lp845
I161
aI144
aI137
aI152
aI136
aI121
aI136
aI121
aI73
aI104
aI73
aI105
aI161
aI120
aI177
aI177
aI161
aI153
aI112
aI128
aI89
aI120
aI137
aI160
aI112
aI119
aI96
aI561
aI113
aI121
aI137
aI113
aI136
aI121
asS'UN'
p846
(lp847
I120
aI129
aI161
aI161
aI152
aI168
aI112
aI176
aI121
aI209
aI385
asS'UI'
p848
(lp849
I47
aI185
aI217
aI201
aI9
aI209
aI33
aI73
aI55
aI113
aI40
asS'UH'
p850
(lp851
I112
asS'UE'
p852
(lp853
I57
aI33
asS'UD'
p854
(lp855
I16
aI9
aI105
aI9
aI17
aI145
asS'UG'
p856
(lp857
I33
aI409
aI65
aI48
aI25
aI17
aI161
aI8
aI24
aI33
asS'UF'
p858
(lp859
I72
asS'UA'
p860
(lp861
I89
aI41
aI25
aI40
aI17
aI33
aI56
aI49
aI17
asS'UC'
p862
(lp863
I113
aI88
aI48
aI105
aI88
aI32
aI16
aI96
aI121
aI96
aI65
aI104
aI8
aI265
aI32
aI128
aI40
aI72
aI40
aI57
aI25
aI48
aI25
aI9
aI376
aI104
aI49
asS'UB'
p864
(lp865
I33
aI16
aI40
asS'N\xbe'
p866
(lp867
I128
aI129
aI153
aI152
aI185
aI225
aI689
asS'\xbc '
p868
(lp869
I49
aI41
aI57
aI89
aI209
aI41
aI120
aI24
aI288
aI272
aI49
aI65
aI57
aI96
aI8
aI8
aI32
aI48
aI145
aI105
aI64
aI41
aI24
aI488
aI88
aI17
aI57
aI40
aI40
aI160
aI65
aI65
aI40
aI80
aI24
aI52
aI40
aI48
aI144
aI41
aI65
aI80
aI48
aI17
aI73
aI368
aI97
aI169
aI49
aI40
aI24
aI41
aI89
aI8
aI256
aI56
aI24
aI24
aI32
aI17
aI16
aI49
aI24
aI32
aI312
aI425
aI72
aI72
aI81
aI25
aI8
aI41
aI73
aI57
aI96
aI9
aI48
aI24
aI41
aI57
aI97
aI33
aI72
aI64
aI97
aI49
aI32
aI136
aI32
aI25
aI65
aI105
asS'T\xde'
p870
(lp871
I113
aI105
aI121
asS'NI'
p872
(lp873
I249
aI105
aI281
aI32
aI216
aI128
aI193
aI113
aI81
aI193
aI41
aI305
aI8
aI105
aI385
aI321
aI128
aI65
aI137
aI33
aI88
aI32
asS'NJ'
p874
(lp875
I104
aI105
aI97
asS'NK'
p876
(lp877
I121
aI88
aI57
aI25
aI113
asS'NL'
p878
(lp879
I49
aI72
asS'NM'
p880
(lp881
I217
aI152
aI121
aI145
asS'NN'
p882
(lp883
I73
asS'NO'
p884
(lp885
I57
aI105
aI113
aI32
aI64
aI97
aI8
aI121
aI49
aI40
aI41
aI32
aI105
aI161
aI1
aI25
aI73
aI8
aI200
aI49
aI88
aI80
aI57
aI8
aI473
asS'NA'
p886
(lp887
I72
aI176
aI136
aI192
aI57
aI25
aI209
aI24
aI11
aI73
aI175
asS'NC'
p888
(lp889
I16
aI24
aI120
aI65
aI65
aI160
aI217
aI17
aI40
aI24
aI40
aI177
aI16
aI73
aI81
aI105
aI88
aI176
aI89
aI25
aI24
asS'ND'
p890
(lp891
I81
aI73
aI40
aI64
aI104
aI9
aI40
aI8
aI33
aI65
aI64
aI25
aI128
aI49
aI73
aI57
aI48
aI120
aI73
aI49
aI32
aI40
aI58
aI168
aI153
aI57
aI16
aI24
aI96
aI86
aI81
aI78
aI160
aI57
aI65
aI40
aI32
aI48
aI368
aI81
aI57
aI97
aI24
aI25
aI9
aI54
aI72
aI57
aI40
aI16
aI16
aI80
aI33
aI16
aI40
aI56
aI40
aI65
aI73
aI33
aI89
aI129
aI65
aI8
aI88
aI49
aI80
aI57
aI40
aI40
aI89
aI17
aI9
aI72
aI129
aI73
aI40
aI56
aI113
aI73
aI57
asS'NE'
p892
(lp893
I8
aI9
aI129
aI56
aI120
aI14
aI72
aI49
aI9
aI64
aI24
aI32
aI184
aI65
aI41
aI16
aI65
aI345
aI48
aI9
aI313
aI16
aI56
aI201
aI56
aI41
aI137
aI97
aI89
aI9
aI8
aI8
aI17
aI70
aI16
asS'NF'
p894
(lp895
I376
aI57
aI73
aI88
aI88
aI657
asS'NG'
p896
(lp897
I8
aI25
aI9
aI32
aI17
aI17
aI8
aI8
aI25
aI24
aI49
aI70
aI32
aI56
aI16
aI16
aI8
aI9
aI9
aI16
aI49
aI161
aI24
aI9
aI161
aI33
aI32
aI152
aI16
aI281
aI6
aI33
aI40
aI9
aI8
aI17
aI40
aI16
aI16
aI129
aI41
aI17
aI32
aI56
aI112
aI16
aI17
aI33
aI41
aI80
aI79
aI49
aI25
aI8
aI33
aI41
aI40
aI54
aI64
aI97
aI8
aI8
aI49
aI33
aI201
aI25
aI49
aI33
aI57
aI9
aI9
aI48
aI24
aI40
aI25
aI25
aI33
aI40
aI8
aI32
aI64
aI9
aI18
aI193
aI153
aI25
aI56
aI777
aI9
aI40
aI32
aI209
aI41
aI208
aI9
aI41
aI49
aI33
aI49
aI41
aI9
aI33
aI105
aI25
aI25
aI8
aI216
aI9
aI17
aI25
aI24
aI40
aI48
aI16
aI32
aI57
aI8
asS'NX'
p898
(lp899
I152
aI224
aI257
aI441
asS'NY'
p900
(lp901
I112
aI137
aI104
aI113
aI113
aI113
asS'NR'
p902
(lp903
I56
asS'NS'
p904
(lp905
I9
aI24
aI8
aI8
aI41
aI97
aI41
aI64
aI33
aI41
aI8
aI16
aI32
aI48
aI1
aI225
aI56
aI104
aI105
aI121
aI16
aI0
aI32
aI9
aI9
aI81
aI24
aI32
aI33
aI49
aI17
aI9
aI128
asS'NT'
p906
(lp907
I9
aI16
aI41
aI113
aI40
aI81
aI81
aI40
aI1
aI65
aI8
aI17
aI24
aI17
aI64
aI504
aI89
aI24
aI57
aI321
aI97
aI0
aI128
aI96
aI169
aI617
aI40
aI113
aI104
aI33
aI8
aI89
aI17
aI8
aI8
aI8
aI89
aI8
aI25
aI185
aI40
aI1
aI1
asS'NU'
p908
(lp909
I104
aI104
aI153
aI129
aI104
aI153
aI127
aI105
aI120
asS'NV'
p910
(lp911
I193
aI136
aI296
aI233
aI56
asS'T\xbe'
p912
(lp913
I160
aI113
aI120
aI73
aI217
aI73
aI113
aI201
aI232
aI290
aI288
aI112
aI150
aI128
aI137
aI89
aI88
aI40
asS'T\xbc'
p914
(lp915
I193
aI225
aI321
aI209
aI129
aI225
aI112
aI112
aI233
aI240
aI176
aI281
aI185
aI185
aI177
aI336
aI217
aI177
aI328
asS'T\xbd'
p916
(lp917
I385
aI120
aI161
asS'T\xba'
p918
(lp919
I24
asS'N '
p920
(lp921
I64
aI0
aI57
aI8
aI64
aI121
aI33
aI9
aI17
aI264
aI129
aI72
aI8
aI56
aI65
aI57
aI72
aI0
aI64
aI1
aI9
aI16
aI47
aI176
aI40
aI81
aI41
aI24
aI112
aI104
aI1
aI25
aI97
aI24
aI33
aI32
aI57
aI17
aI49
aI248
aI40
aI9
aI26
aI71
aI1
aI569
aI89
aI33
aI8
aI56
aI56
aI144
aI737
aI88
aI16
aI89
aI9
aI24
aI41
aI24
aI24
aI7
aI8
aI8
aI25
aI105
aI17
aI40
aI1
aI8
aI32
aI289
aI41
aI40
aI64
aI24
aI0
aI0
aI48
aI33
aI96
aI8
aI16
aI49
aI361
aI49
aI25
aI17
aI9
aI9
aI64
aI16
aI9
aI409
aI705
aI33
aI97
aI0
aI32
aI24
aI48
aI8
aI41
aI321
aI25
aI1
aI9
aI33
aI33
aI48
aI16
aI8
aI33
aI64
aI89
asS'A\xde'
p922
(lp923
I23
asS'N\x08'
p924
(lp925
I665
aI448
aI713
aI496
asS'\xbcS'
p926
(lp927
I97
asS'O\xbc'
p928
(lp929
I256
asS'A\x08'
p930
(lp931
I352
aI337
aI296
aI376
asS'A '
p932
(lp933
I33
aI17
aI64
aI49
aI217
aI48
aI16
aI41
aI33
aI89
aI25
aI8
aI24
aI72
aI24
aI8
aI48
aI25
aI17
aI25
aI33
aI32
aI24
aI33
aI17
aI8
aI24
aI24
aI17
aI176
aI8
aI16
aI16
aI41
aI41
aI8
aI24
aI89
aI89
aI15
aI16
aI89
aI24
aI8
aI16
aI32
asS'TX'
p934
(lp935
I265
asS'TY'
p936
(lp937
I144
aI17
aI105
aI329
aI65
aI40
aI288
aI32
aI64
aI9
aI401
aI209
aI65
aI88
aI40
aI121
aI25
aI17
aI16
aI25
aI40
aI152
asS'TW'
p938
(lp939
I49
aI57
asS'TT'
p940
(lp941
I81
aI241
aI80
aI81
aI73
aI288
aI424
aI113
aI176
aI81
aI280
asS'TU'
p942
(lp943
I72
aI57
aI16
aI152
aI89
aI168
asS'TR'
p944
(lp945
I368
aI89
aI121
aI89
aI97
aI208
aI73
aI169
aI97
aI72
aI209
aI88
aI57
aI89
aI121
aI88
aI80
aI88
aI80
aI153
aI89
aI88
aI80
aI299
aI104
aI89
aI89
aI65
aI89
aI89
asS'TS'
p946
(lp947
I152
aI129
aI736
aI112
aI88
aI145
aI113
aI89
aI89
aI97
aI89
aI80
aI105
aI113
aI129
aI113
aI80
aI105
aI88
aI72
aI121
aI144
aI97
aI97
aI72
aI121
aI73
aI104
asS'40'
p948
(lp949
I625
asS'U '
p950
(lp951
I17
aI40
aI25
aI657
aI384
aI24
aI136
aI16
aI24
aI17
aI17
aI9
aI409
aI8
aI41
aI161
aI9
aI16
aI513
aI73
aI25
aI8
aI16
aI8
aI121
aI1
aI32
aI32
aI24
aI17
aI33
aI152
aI5
aI40
aI225
aI137
aI40
aI9
aI113
aI8
aI25
aI16
aI65
aI9
aI9
aI48
aI65
aI49
aI24
aI16
aI40
aI41
aI1
aI9
asS'TN'
p952
(lp953
I152
aI201
aI81
asS'TO'
p954
(lp955
I8
aI49
aI25
aI97
aI17
aI56
aI144
aI8
aI8
aI89
aI80
aI8
aI16
aI33
aI112
aI416
aI16
aI185
aI104
aI72
aI49
aI144
aI336
aI8
aI8
aI33
aI32
aI129
aI625
aI481
aI41
aI41
aI89
aI17
aI33
aI729
aI96
aI17
aI8
aI40
aI8
aI33
aI89
aI8
aI80
aI16
aI257
aI72
aI8
aI97
aI48
aI8
aI16
aI72
aI48
aI8
aI105
aI81
aI65
aI32
aI73
aI16
aI105
aI16
aI105
aI353
aI81
aI88
aI89
aI88
aI25
aI81
aI81
aI80
aI80
aI16
aI32
aI32
aI145
aI104
aI8
aI24
aI248
aI72
aI145
aI41
aI25
asS'TL'
p956
(lp957
I65
aI217
aI80
asS'TK'
p958
(lp959
I528
asS'N\xde'
p960
(lp961
I81
aI33
aI41
aI24
aI8
aI9
aI16
asS'9 '
p962
(lp963
I97
asS'TF'
p964
(lp965
I433
aI249
asS'TE'
p966
(lp967
I25
aI41
aI161
aI81
aI64
aI113
aI121
aI137
aI72
aI73
aI96
aI73
aI64
aI88
aI64
aI112
aI360
aI113
aI168
aI120
aI105
aI24
aI57
aI273
aI33
aI56
aI128
aI136
aI65
aI160
aI16
aI120
aI72
aI240
aI120
aI72
aI65
aI89
aI40
aI48
aI48
aI65
aI80
aI121
aI105
aI73
aI24
aI65
aI120
aI96
aI56
aI113
aI105
aI376
aI137
aI41
asS'TB'
p968
(lp969
I312
asS'4 '
p970
(lp971
I177
aI25
asS'TA'
p972
(lp973
I120
aI80
aI48
aI89
aI209
aI73
aI64
aI57
aI81
aI129
aI48
aI65
aI48
aI73
aI121
aI104
aI64
aI97
aI168
aI241
aI120
aI65
aI256
aI209
aI81
aI137
aI48
aI57
aI48
aI48
aI56
aI57
aI73
aI80
aI56
aI81
aI80
aI24
asS'AA'
p974
(lp975
I32
aI25
asS'AC'
p976
(lp977
I57
aI49
aI208
aI80
aI65
aI48
aI104
aI48
aI176
aI97
aI96
aI81
aI73
aI89
aI104
aI201
aI80
aI81
aI241
aI104
aI81
asS'AB'
p978
(lp979
I184
aI88
aI112
aI56
aI464
aI72
aI97
aI96
aI9
aI104
aI105
aI49
aI64
aI49
aI128
aI96
aI96
aI97
aI72
aI113
aI89
aI137
aI128
aI264
aI160
aI97
asS'AE'
p980
(lp981
I777
asS'AD'
p982
(lp983
I161
aI112
aI120
aI113
aI89
aI70
aI152
aI89
aI89
aI97
aI121
aI177
aI105
aI120
aI64
aI112
aI384
aI113
aI345
asS'AG'
p984
(lp985
I96
aI57
aI120
aI121
aI89
aI8
aI193
asS'AF'
p986
(lp987
I64
aI80
aI328
aI32
aI1065
aI161
aI112
aI80
aI104
aI97
aI169
aI105
asS'AI'
p988
(lp989
I25
aI272
aI56
aI97
aI104
aI73
aI33
aI113
aI64
aI33
aI49
aI72
aI57
aI73
aI105
aI33
aI39
aI41
aI80
aI40
asS'AK'
p990
(lp991
I24
aI121
aI49
aI16
aI1
aI40
aI24
aI48
aI41
aI16
aI40
aI96
aI24
aI49
aI96
aI16
aI40
aI8
aI32
aI40
aI16
aI33
aI16
aI39
aI112
aI16
aI96
aI9
aI200
aI56
asS'AJ'
p992
(lp993
I48
asS'AM'
p994
(lp995
I201
aI121
aI176
aI313
aI417
aI16
aI128
aI112
aI56
aI56
asS'AL'
p996
(lp997
I65
aI57
aI52
aI33
aI40
aI41
aI72
aI8
aI57
aI88
aI16
aI160
aI9
aI16
aI65
aI8
aI24
aI161
aI185
aI17
aI409
aI32
aI56
aI16
aI169
aI32
aI96
aI24
aI33
aI33
aI24
aI33
aI33
aI25
aI8
aI73
aI129
aI16
aI8
aI17
aI17
aI40
aI17
aI1
aI24
aI8
aI64
aI472
aI17
aI48
aI17
aI8
aI40
aI64
aI8
aI24
aI32
aI24
aI32
aI8
aI40
aI8
aI17
aI425
aI33
aI56
aI8
aI32
aI104
aI8
aI16
aI16
aI56
aI49
aI25
aI0
aI1
aI569
aI257
aI33
aI136
aI25
aI1
aI57
aI8
asS'AO'
p998
(lp999
I112
aI137
asS'AN'
p1000
(lp1001
I32
aI113
aI17
aI89
aI192
aI112
aI57
aI105
aI56
aI80
aI128
aI73
aI105
aI42
aI16
aI89
aI25
aI96
aI80
aI1
aI88
aI81
aI128
aI160
aI128
aI69
aI136
aI80
aI81
aI73
aI25
aI65
aI32
aI24
aI168
aI88
aI88
aI120
aI40
aI81
aI64
aI80
aI40
aI16
aI81
aI97
aI48
aI89
aI113
aI89
aI208
aI177
aI73
aI17
aI152
aI56
aI71
aI16
aI89
aI32
aI136
aI88
aI73
aI73
aI17
aI56
aI72
aI88
aI161
aI89
aI73
aI9
aI72
aI88
aI88
aI24
aI120
aI1
aI81
aI113
aI81
aI88
aI8
aI48
aI168
aI85
aI64
aI217
aI72
aI72
aI64
aI80
aI16
aI224
aI96
aI56
aI73
aI33
aI80
aI48
aI88
aI72
aI80
aI89
aI129
aI56
aI24
aI473
aI97
aI16
aI88
aI80
aI89
aI72
aI9
aI185
aI9
aI97
aI25
aI112
aI128
aI89
aI105
aI120
aI143
aI9
aI48
aI9
aI161
aI72
aI105
aI73
aI64
aI105
aI16
aI97
aI89
aI129
asS'AP'
p1002
(lp1003
I24
aI137
asS'AS'
p1004
(lp1005
I112
aI177
aI97
aI121
aI81
aI96
aI102
aI89
aI89
aI225
aI129
aI144
aI72
aI153
aI96
aI73
aI65
aI104
aI81
aI72
aI272
aI113
aI160
aI137
aI153
aI768
aI121
aI200
aI97
aI112
aI160
aI152
aI80
aI160
aI113
aI113
aI112
aI184
aI56
aI177
aI249
aI80
aI152
aI128
aI89
aI96
aI137
aI88
asS'AR'
p1006
(lp1007
I105
aI25
aI8
aI16
aI16
aI177
aI9
aI65
aI16
aI120
aI144
aI105
aI73
aI65
aI240
aI136
aI89
aI81
aI233
aI73
aI89
aI65
aI57
aI128
aI73
aI153
aI62
aI169
aI0
aI105
aI88
aI153
aI96
aI56
aI121
aI168
aI65
aI72
aI128
aI145
aI144
aI40
aI8
aI9
aI177
aI104
aI104
aI80
aI24
aI441
aI112
aI80
aI105
aI145
aI64
aI145
aI144
aI136
aI48
asS'AU'
p1008
(lp1009
I128
aI128
aI105
aI33
aI9
aI16
aI169
aI121
aI0
aI137
asS'N\xbd'
p1010
(lp1011
I217
asS'AW'
p1012
(lp1013
I224
aI96
aI120
aI361
aI145
aI112
aI129
aI272
asS'AV'
p1014
(lp1015
I145
aI41
aI48
aI25
aI33
aI121
aI168
aI72
aI25
aI25
aI40
aI41
aI32
aI105
aI88
aI152
aI64
aI153
aI32
asS'AY'
p1016
(lp1017
I25
aI9
aI104
aI145
aI16
aI128
aI8
aI185
aI8
aI129
aI9
aI177
aI121
aI208
aI129
aI152
aI48
aI112
aI41
aI16
aI48
asS'AX'
p1018
(lp1019
I225
aI368
asS'T '
p1020
(lp1021
I49
aI361
aI33
aI1520
aI65
aI177
aI49
aI121
aI169
aI41
aI89
aI73
aI120
aI49
aI25
aI89
aI40
aI25
aI56
aI88
aI136
aI88
aI41
aI32
aI0
aI56
aI233
aI9
aI40
aI97
aI16
aI88
aI57
aI40
aI25
aI41
aI121
aI625
aI40
aI96
aI16
aI33
aI25
aI65
aI73
aI192
aI80
aI16
aI41
aI65
aI17
aI129
aI120
aI88
aI16
aI57
aI273
aI120
aI40
aI8
aI8
aI56
aI17
aI32
aI320
aI48
aI144
aI88
aI56
aI1
aI9
aI0
aI48
aI16
aI8
aI64
aI129
aI17
aI33
aI25
aI97
aI65
aI48
aI176
aI78
aI210
aI81
aI80
aI57
aI1
aI32
aI40
aI40
aI56
aI48
aI169
aI17
aI40
aI63
aI48
aI129
aI56
aI57
aI81
aI80
aI200
aI129
aI121
aI17
aI57
aI72
aI48
aI113
aI40
aI33
aI57
aI8
aI33
aI14
aI24
aI145
aI128
aI24
aI136
aI9
aI56
aI40
aI16
aI424
aI16
aI72
aI81
aI72
aI80
aI48
aI17
aI112
aI40
aI24
aI40
aI57
aI65
aI65
aI57
aI49
aI17
aI152
aI72
aI73
aI49
aI145
aI40
aI40
aI32
aI64
aI80
aI40
aI72
aI104
aI1
aI24
aI109
aI1
aI105
aI129
aI33
aI73
aI8
aI24
aI1
aI8
aI153
aI96
aI88
aI16
aI73
aI48
aI1
aI17
aI1
aI57
asS'T\x08'
p1022
(lp1023
I320
aI361
aI416
as.